Archive member included to satisfy reference by file (symbol)

/Users/davidebucci/Desktop/Synchronized/Vintage/Computing/Atari/ST/brown/lib/gcc/m68k-atariextrabrowner-elf/10.2.0/../../../../m68k-atariextrabrowner-elf/lib/m68000/libc.a(checkcpu.o)
                              /Users/davidebucci/Desktop/Synchronized/Vintage/Computing/Atari/ST/brown//../bigbrownbuild-git/mintlib-bigbrownbuild-10.2.0/startup/crt0.o (__checkcpu)
/Users/davidebucci/Desktop/Synchronized/Vintage/Computing/Atari/ST/brown/lib/gcc/m68k-atariextrabrowner-elf/10.2.0/../../../../m68k-atariextrabrowner-elf/lib/m68000/libc.a(crtinit.o)
                              /Users/davidebucci/Desktop/Synchronized/Vintage/Computing/Atari/ST/brown//../bigbrownbuild-git/mintlib-bigbrownbuild-10.2.0/startup/crt0.o (__acc_main)
/Users/davidebucci/Desktop/Synchronized/Vintage/Computing/Atari/ST/brown/lib/gcc/m68k-atariextrabrowner-elf/10.2.0/../../../../m68k-atariextrabrowner-elf/lib/m68000/libc.a(getenv.o)
                              /Users/davidebucci/Desktop/Synchronized/Vintage/Computing/Atari/ST/brown/lib/gcc/m68k-atariextrabrowner-elf/10.2.0/../../../../m68k-atariextrabrowner-elf/lib/m68000/libc.a(crtinit.o) (_getenv)
/Users/davidebucci/Desktop/Synchronized/Vintage/Computing/Atari/ST/brown/lib/gcc/m68k-atariextrabrowner-elf/10.2.0/../../../../m68k-atariextrabrowner-elf/lib/m68000/libc.a(globals.o)
                              queens_no_UTF8.o (symbol from plugin) (_stdin)
/Users/davidebucci/Desktop/Synchronized/Vintage/Computing/Atari/ST/brown/lib/gcc/m68k-atariextrabrowner-elf/10.2.0/../../../../m68k-atariextrabrowner-elf/lib/m68000/libc.a(heapbase.o)
                              /Users/davidebucci/Desktop/Synchronized/Vintage/Computing/Atari/ST/brown//../bigbrownbuild-git/mintlib-bigbrownbuild-10.2.0/startup/crt0.o (__heapbase)
/Users/davidebucci/Desktop/Synchronized/Vintage/Computing/Atari/ST/brown/lib/gcc/m68k-atariextrabrowner-elf/10.2.0/../../../../m68k-atariextrabrowner-elf/lib/m68000/libc.a(ident.o)
                              /Users/davidebucci/Desktop/Synchronized/Vintage/Computing/Atari/ST/brown//../bigbrownbuild-git/mintlib-bigbrownbuild-10.2.0/startup/crt0.o (___Ident_gnulib)
/Users/davidebucci/Desktop/Synchronized/Vintage/Computing/Atari/ST/brown/lib/gcc/m68k-atariextrabrowner-elf/10.2.0/../../../../m68k-atariextrabrowner-elf/lib/m68000/libc.a(ident_dummy_gem.o)
                              /Users/davidebucci/Desktop/Synchronized/Vintage/Computing/Atari/ST/brown//../bigbrownbuild-git/mintlib-bigbrownbuild-10.2.0/startup/crt0.o (___Ident_gem)
/Users/davidebucci/Desktop/Synchronized/Vintage/Computing/Atari/ST/brown/lib/gcc/m68k-atariextrabrowner-elf/10.2.0/../../../../m68k-atariextrabrowner-elf/lib/m68000/libc.a(inistack.o)
                              /Users/davidebucci/Desktop/Synchronized/Vintage/Computing/Atari/ST/brown/lib/gcc/m68k-atariextrabrowner-elf/10.2.0/../../../../m68k-atariextrabrowner-elf/lib/m68000/libc.a(crtinit.o) (__initial_stack)
/Users/davidebucci/Desktop/Synchronized/Vintage/Computing/Atari/ST/brown/lib/gcc/m68k-atariextrabrowner-elf/10.2.0/../../../../m68k-atariextrabrowner-elf/lib/m68000/libc.a(main.o)
                              /Users/davidebucci/Desktop/Synchronized/Vintage/Computing/Atari/ST/brown/lib/gcc/m68k-atariextrabrowner-elf/10.2.0/../../../../m68k-atariextrabrowner-elf/lib/m68000/libc.a(crtinit.o) (__main)
/Users/davidebucci/Desktop/Synchronized/Vintage/Computing/Atari/ST/brown/lib/gcc/m68k-atariextrabrowner-elf/10.2.0/../../../../m68k-atariextrabrowner-elf/lib/m68000/libc.a(malloc.o)
                              /Users/davidebucci/Desktop/Synchronized/Vintage/Computing/Atari/ST/brown/lib/gcc/m68k-atariextrabrowner-elf/10.2.0/../../../../m68k-atariextrabrowner-elf/lib/m68000/libc.a(main.o) (_malloc)
/Users/davidebucci/Desktop/Synchronized/Vintage/Computing/Atari/ST/brown/lib/gcc/m68k-atariextrabrowner-elf/10.2.0/../../../../m68k-atariextrabrowner-elf/lib/m68000/libc.a(realloc.o)
                              /Users/davidebucci/Desktop/Synchronized/Vintage/Computing/Atari/ST/brown/lib/gcc/m68k-atariextrabrowner-elf/10.2.0/../../../../m68k-atariextrabrowner-elf/lib/m68000/libc.a(main.o) (_realloc)
/Users/davidebucci/Desktop/Synchronized/Vintage/Computing/Atari/ST/brown/lib/gcc/m68k-atariextrabrowner-elf/10.2.0/../../../../m68k-atariextrabrowner-elf/lib/m68000/libc.a(setstack.o)
                              /Users/davidebucci/Desktop/Synchronized/Vintage/Computing/Atari/ST/brown/lib/gcc/m68k-atariextrabrowner-elf/10.2.0/../../../../m68k-atariextrabrowner-elf/lib/m68000/libc.a(crtinit.o) (__setstack)
/Users/davidebucci/Desktop/Synchronized/Vintage/Computing/Atari/ST/brown/lib/gcc/m68k-atariextrabrowner-elf/10.2.0/../../../../m68k-atariextrabrowner-elf/lib/m68000/libc.a(stksiz.o)
                              /Users/davidebucci/Desktop/Synchronized/Vintage/Computing/Atari/ST/brown//../bigbrownbuild-git/mintlib-bigbrownbuild-10.2.0/startup/crt0.o (__stksize)
/Users/davidebucci/Desktop/Synchronized/Vintage/Computing/Atari/ST/brown/lib/gcc/m68k-atariextrabrowner-elf/10.2.0/../../../../m68k-atariextrabrowner-elf/lib/m68000/libc.a(unx2dos.o)
                              /Users/davidebucci/Desktop/Synchronized/Vintage/Computing/Atari/ST/brown/lib/gcc/m68k-atariextrabrowner-elf/10.2.0/../../../../m68k-atariextrabrowner-elf/lib/m68000/libc.a(main.o) (__path_dos2unx)
/Users/davidebucci/Desktop/Synchronized/Vintage/Computing/Atari/ST/brown/lib/gcc/m68k-atariextrabrowner-elf/10.2.0/../../../../m68k-atariextrabrowner-elf/lib/m68000/libc.a(initsig.o)
                              /Users/davidebucci/Desktop/Synchronized/Vintage/Computing/Atari/ST/brown/lib/gcc/m68k-atariextrabrowner-elf/10.2.0/../../../../m68k-atariextrabrowner-elf/lib/m68000/libc.a(crtinit.o) (__init_signal)
/Users/davidebucci/Desktop/Synchronized/Vintage/Computing/Atari/ST/brown/lib/gcc/m68k-atariextrabrowner-elf/10.2.0/../../../../m68k-atariextrabrowner-elf/lib/m68000/libc.a(binmode.o)
                              /Users/davidebucci/Desktop/Synchronized/Vintage/Computing/Atari/ST/brown/lib/gcc/m68k-atariextrabrowner-elf/10.2.0/../../../../m68k-atariextrabrowner-elf/lib/m68000/libc.a(main.o) (___set_binmode)
/Users/davidebucci/Desktop/Synchronized/Vintage/Computing/Atari/ST/brown/lib/gcc/m68k-atariextrabrowner-elf/10.2.0/../../../../m68k-atariextrabrowner-elf/lib/m68000/libc.a(defmode.o)
                              /Users/davidebucci/Desktop/Synchronized/Vintage/Computing/Atari/ST/brown/lib/gcc/m68k-atariextrabrowner-elf/10.2.0/../../../../m68k-atariextrabrowner-elf/lib/m68000/libc.a(main.o) (___default_mode__)
/Users/davidebucci/Desktop/Synchronized/Vintage/Computing/Atari/ST/brown/lib/gcc/m68k-atariextrabrowner-elf/10.2.0/../../../../m68k-atariextrabrowner-elf/lib/m68000/libc.a(fclose.o)
                              loadsave.o (symbol from plugin) (_fclose)
/Users/davidebucci/Desktop/Synchronized/Vintage/Computing/Atari/ST/brown/lib/gcc/m68k-atariextrabrowner-elf/10.2.0/../../../../m68k-atariextrabrowner-elf/lib/m68000/libc.a(fgets.o)
                              queens_no_UTF8.o (symbol from plugin) (_fgets)
/Users/davidebucci/Desktop/Synchronized/Vintage/Computing/Atari/ST/brown/lib/gcc/m68k-atariextrabrowner-elf/10.2.0/../../../../m68k-atariextrabrowner-elf/lib/m68000/libc.a(fileno.o)
                              /Users/davidebucci/Desktop/Synchronized/Vintage/Computing/Atari/ST/brown/lib/gcc/m68k-atariextrabrowner-elf/10.2.0/../../../../m68k-atariextrabrowner-elf/lib/m68000/libc.a(main.o) (_fileno)
/Users/davidebucci/Desktop/Synchronized/Vintage/Computing/Atari/ST/brown/lib/gcc/m68k-atariextrabrowner-elf/10.2.0/../../../../m68k-atariextrabrowner-elf/lib/m68000/libc.a(fopen.o)
                              loadsave.o (symbol from plugin) (_fopen)
/Users/davidebucci/Desktop/Synchronized/Vintage/Computing/Atari/ST/brown/lib/gcc/m68k-atariextrabrowner-elf/10.2.0/../../../../m68k-atariextrabrowner-elf/lib/m68000/libc.a(getchar.o)
                              queens_no_UTF8.o (symbol from plugin) (_getchar)
/Users/davidebucci/Desktop/Synchronized/Vintage/Computing/Atari/ST/brown/lib/gcc/m68k-atariextrabrowner-elf/10.2.0/../../../../m68k-atariextrabrowner-elf/lib/m68000/libc.a(internals.o)
                              /Users/davidebucci/Desktop/Synchronized/Vintage/Computing/Atari/ST/brown/lib/gcc/m68k-atariextrabrowner-elf/10.2.0/../../../../m68k-atariextrabrowner-elf/lib/m68000/libc.a(fileno.o) (___stdio_check_funcs)
/Users/davidebucci/Desktop/Synchronized/Vintage/Computing/Atari/ST/brown/lib/gcc/m68k-atariextrabrowner-elf/10.2.0/../../../../m68k-atariextrabrowner-elf/lib/m68000/libc.a(newstream.o)
                              /Users/davidebucci/Desktop/Synchronized/Vintage/Computing/Atari/ST/brown/lib/gcc/m68k-atariextrabrowner-elf/10.2.0/../../../../m68k-atariextrabrowner-elf/lib/m68000/libc.a(fopen.o) (___newstream)
/Users/davidebucci/Desktop/Synchronized/Vintage/Computing/Atari/ST/brown/lib/gcc/m68k-atariextrabrowner-elf/10.2.0/../../../../m68k-atariextrabrowner-elf/lib/m68000/libc.a(setvbuf.o)
                              /Users/davidebucci/Desktop/Synchronized/Vintage/Computing/Atari/ST/brown/lib/gcc/m68k-atariextrabrowner-elf/10.2.0/../../../../m68k-atariextrabrowner-elf/lib/m68000/libc.a(main.o) (_setvbuf)
/Users/davidebucci/Desktop/Synchronized/Vintage/Computing/Atari/ST/brown/lib/gcc/m68k-atariextrabrowner-elf/10.2.0/../../../../m68k-atariextrabrowner-elf/lib/m68000/libc.a(stdio_init.o)
                              /Users/davidebucci/Desktop/Synchronized/Vintage/Computing/Atari/ST/brown/lib/gcc/m68k-atariextrabrowner-elf/10.2.0/../../../../m68k-atariextrabrowner-elf/lib/m68000/libc.a(internals.o) (___stdio_init_stream)
/Users/davidebucci/Desktop/Synchronized/Vintage/Computing/Atari/ST/brown/lib/gcc/m68k-atariextrabrowner-elf/10.2.0/../../../../m68k-atariextrabrowner-elf/lib/m68000/libc.a(sysd-stdio.o)
                              /Users/davidebucci/Desktop/Synchronized/Vintage/Computing/Atari/ST/brown/lib/gcc/m68k-atariextrabrowner-elf/10.2.0/../../../../m68k-atariextrabrowner-elf/lib/m68000/libc.a(fclose.o) (___stdio_close)
/Users/davidebucci/Desktop/Synchronized/Vintage/Computing/Atari/ST/brown/lib/gcc/m68k-atariextrabrowner-elf/10.2.0/../../../../m68k-atariextrabrowner-elf/lib/m68000/libc.a(atoi.o)
                              /Users/davidebucci/Desktop/Synchronized/Vintage/Computing/Atari/ST/brown/lib/gcc/m68k-atariextrabrowner-elf/10.2.0/../../../../m68k-atariextrabrowner-elf/lib/m68000/libc.a(crtinit.o) (_atoi)
/Users/davidebucci/Desktop/Synchronized/Vintage/Computing/Atari/ST/brown/lib/gcc/m68k-atariextrabrowner-elf/10.2.0/../../../../m68k-atariextrabrowner-elf/lib/m68000/libc.a(exit.o)
                              /Users/davidebucci/Desktop/Synchronized/Vintage/Computing/Atari/ST/brown/lib/gcc/m68k-atariextrabrowner-elf/10.2.0/../../../../m68k-atariextrabrowner-elf/lib/m68000/libc.a(main.o) (_exit)
/Users/davidebucci/Desktop/Synchronized/Vintage/Computing/Atari/ST/brown/lib/gcc/m68k-atariextrabrowner-elf/10.2.0/../../../../m68k-atariextrabrowner-elf/lib/m68000/libc.a(strtol.o)
                              /Users/davidebucci/Desktop/Synchronized/Vintage/Computing/Atari/ST/brown/lib/gcc/m68k-atariextrabrowner-elf/10.2.0/../../../../m68k-atariextrabrowner-elf/lib/m68000/libc.a(atoi.o) (_strtol)
/Users/davidebucci/Desktop/Synchronized/Vintage/Computing/Atari/ST/brown/lib/gcc/m68k-atariextrabrowner-elf/10.2.0/../../../../m68k-atariextrabrowner-elf/lib/m68000/libc.a(bcopy.o)
                              /Users/davidebucci/Desktop/Synchronized/Vintage/Computing/Atari/ST/brown/lib/gcc/m68k-atariextrabrowner-elf/10.2.0/../../../../m68k-atariextrabrowner-elf/lib/m68000/libc.a(realloc.o) (___bcopy)
/Users/davidebucci/Desktop/Synchronized/Vintage/Computing/Atari/ST/brown/lib/gcc/m68k-atariextrabrowner-elf/10.2.0/../../../../m68k-atariextrabrowner-elf/lib/m68000/libc.a(bzero.o)
                              /Users/davidebucci/Desktop/Synchronized/Vintage/Computing/Atari/ST/brown/lib/gcc/m68k-atariextrabrowner-elf/10.2.0/../../../../m68k-atariextrabrowner-elf/lib/m68000/libc.a(malloc.o) (___bzero)
/Users/davidebucci/Desktop/Synchronized/Vintage/Computing/Atari/ST/brown/lib/gcc/m68k-atariextrabrowner-elf/10.2.0/../../../../m68k-atariextrabrowner-elf/lib/m68000/libc.a(memccpy.o)
                              /Users/davidebucci/Desktop/Synchronized/Vintage/Computing/Atari/ST/brown/lib/gcc/m68k-atariextrabrowner-elf/10.2.0/../../../../m68k-atariextrabrowner-elf/lib/m68000/libc.a(fgets.o) (___memccpy)
/Users/davidebucci/Desktop/Synchronized/Vintage/Computing/Atari/ST/brown/lib/gcc/m68k-atariextrabrowner-elf/10.2.0/../../../../m68k-atariextrabrowner-elf/lib/m68000/libc.a(memset.o)
                              /Users/davidebucci/Desktop/Synchronized/Vintage/Computing/Atari/ST/brown/lib/gcc/m68k-atariextrabrowner-elf/10.2.0/../../../../m68k-atariextrabrowner-elf/lib/m68000/libc.a(initsig.o) (_memset)
/Users/davidebucci/Desktop/Synchronized/Vintage/Computing/Atari/ST/brown/lib/gcc/m68k-atariextrabrowner-elf/10.2.0/../../../../m68k-atariextrabrowner-elf/lib/m68000/libc.a(strcmp.o)
                              /Users/davidebucci/Desktop/Synchronized/Vintage/Computing/Atari/ST/brown/lib/gcc/m68k-atariextrabrowner-elf/10.2.0/../../../../m68k-atariextrabrowner-elf/lib/m68000/libc.a(unx2dos.o) (_strcmp)
/Users/davidebucci/Desktop/Synchronized/Vintage/Computing/Atari/ST/brown/lib/gcc/m68k-atariextrabrowner-elf/10.2.0/../../../../m68k-atariextrabrowner-elf/lib/m68000/libc.a(strlen.o)
                              /Users/davidebucci/Desktop/Synchronized/Vintage/Computing/Atari/ST/brown/lib/gcc/m68k-atariextrabrowner-elf/10.2.0/../../../../m68k-atariextrabrowner-elf/lib/m68000/libc.a(getenv.o) (_strlen)
/Users/davidebucci/Desktop/Synchronized/Vintage/Computing/Atari/ST/brown/lib/gcc/m68k-atariextrabrowner-elf/10.2.0/../../../../m68k-atariextrabrowner-elf/lib/m68000/libc.a(strncat.o)
                              /Users/davidebucci/Desktop/Synchronized/Vintage/Computing/Atari/ST/brown/lib/gcc/m68k-atariextrabrowner-elf/10.2.0/../../../../m68k-atariextrabrowner-elf/lib/m68000/libc.a(unx2dos.o) (_strncat)
/Users/davidebucci/Desktop/Synchronized/Vintage/Computing/Atari/ST/brown/lib/gcc/m68k-atariextrabrowner-elf/10.2.0/../../../../m68k-atariextrabrowner-elf/lib/m68000/libc.a(strncmp.o)
                              /Users/davidebucci/Desktop/Synchronized/Vintage/Computing/Atari/ST/brown/lib/gcc/m68k-atariextrabrowner-elf/10.2.0/../../../../m68k-atariextrabrowner-elf/lib/m68000/libc.a(getenv.o) (_strncmp)
/Users/davidebucci/Desktop/Synchronized/Vintage/Computing/Atari/ST/brown/lib/gcc/m68k-atariextrabrowner-elf/10.2.0/../../../../m68k-atariextrabrowner-elf/lib/m68000/libc.a(strncpy.o)
                              /Users/davidebucci/Desktop/Synchronized/Vintage/Computing/Atari/ST/brown/lib/gcc/m68k-atariextrabrowner-elf/10.2.0/../../../../m68k-atariextrabrowner-elf/lib/m68000/libc.a(main.o) (_strncpy)
/Users/davidebucci/Desktop/Synchronized/Vintage/Computing/Atari/ST/brown/lib/gcc/m68k-atariextrabrowner-elf/10.2.0/../../../../m68k-atariextrabrowner-elf/lib/m68000/libc.a(strrchr.o)
                              /Users/davidebucci/Desktop/Synchronized/Vintage/Computing/Atari/ST/brown/lib/gcc/m68k-atariextrabrowner-elf/10.2.0/../../../../m68k-atariextrabrowner-elf/lib/m68000/libc.a(crtinit.o) (_strrchr)
/Users/davidebucci/Desktop/Synchronized/Vintage/Computing/Atari/ST/brown/lib/gcc/m68k-atariextrabrowner-elf/10.2.0/../../../../m68k-atariextrabrowner-elf/lib/m68000/libc.a(close.o)
                              /Users/davidebucci/Desktop/Synchronized/Vintage/Computing/Atari/ST/brown/lib/gcc/m68k-atariextrabrowner-elf/10.2.0/../../../../m68k-atariextrabrowner-elf/lib/m68000/libc.a(sysd-stdio.o) (___close)
/Users/davidebucci/Desktop/Synchronized/Vintage/Computing/Atari/ST/brown/lib/gcc/m68k-atariextrabrowner-elf/10.2.0/../../../../m68k-atariextrabrowner-elf/lib/m68000/libc.a(dup2.o)
                              /Users/davidebucci/Desktop/Synchronized/Vintage/Computing/Atari/ST/brown/lib/gcc/m68k-atariextrabrowner-elf/10.2.0/../../../../m68k-atariextrabrowner-elf/lib/m68000/libc.a(sysd-stdio.o) (___dup2)
/Users/davidebucci/Desktop/Synchronized/Vintage/Computing/Atari/ST/brown/lib/gcc/m68k-atariextrabrowner-elf/10.2.0/../../../../m68k-atariextrabrowner-elf/lib/m68000/libc.a(fstat.o)
                              /Users/davidebucci/Desktop/Synchronized/Vintage/Computing/Atari/ST/brown/lib/gcc/m68k-atariextrabrowner-elf/10.2.0/../../../../m68k-atariextrabrowner-elf/lib/m68000/libc.a(main.o) (_fstat)
/Users/davidebucci/Desktop/Synchronized/Vintage/Computing/Atari/ST/brown/lib/gcc/m68k-atariextrabrowner-elf/10.2.0/../../../../m68k-atariextrabrowner-elf/lib/m68000/libc.a(getpagesize.o)
                              /Users/davidebucci/Desktop/Synchronized/Vintage/Computing/Atari/ST/brown/lib/gcc/m68k-atariextrabrowner-elf/10.2.0/../../../../m68k-atariextrabrowner-elf/lib/m68000/libc.a(malloc.o) (_getpagesize)
/Users/davidebucci/Desktop/Synchronized/Vintage/Computing/Atari/ST/brown/lib/gcc/m68k-atariextrabrowner-elf/10.2.0/../../../../m68k-atariextrabrowner-elf/lib/m68000/libc.a(lseek.o)
                              /Users/davidebucci/Desktop/Synchronized/Vintage/Computing/Atari/ST/brown/lib/gcc/m68k-atariextrabrowner-elf/10.2.0/../../../../m68k-atariextrabrowner-elf/lib/m68000/libc.a(sysd-stdio.o) (___lseek)
/Users/davidebucci/Desktop/Synchronized/Vintage/Computing/Atari/ST/brown/lib/gcc/m68k-atariextrabrowner-elf/10.2.0/../../../../m68k-atariextrabrowner-elf/lib/m68000/libc.a(open.o)
                              /Users/davidebucci/Desktop/Synchronized/Vintage/Computing/Atari/ST/brown/lib/gcc/m68k-atariextrabrowner-elf/10.2.0/../../../../m68k-atariextrabrowner-elf/lib/m68000/libc.a(sysd-stdio.o) (___open)
/Users/davidebucci/Desktop/Synchronized/Vintage/Computing/Atari/ST/brown/lib/gcc/m68k-atariextrabrowner-elf/10.2.0/../../../../m68k-atariextrabrowner-elf/lib/m68000/libc.a(read.o)
                              /Users/davidebucci/Desktop/Synchronized/Vintage/Computing/Atari/ST/brown/lib/gcc/m68k-atariextrabrowner-elf/10.2.0/../../../../m68k-atariextrabrowner-elf/lib/m68000/libc.a(sysd-stdio.o) (___read)
/Users/davidebucci/Desktop/Synchronized/Vintage/Computing/Atari/ST/brown/lib/gcc/m68k-atariextrabrowner-elf/10.2.0/../../../../m68k-atariextrabrowner-elf/lib/m68000/libc.a(sbrk.o)
                              /Users/davidebucci/Desktop/Synchronized/Vintage/Computing/Atari/ST/brown/lib/gcc/m68k-atariextrabrowner-elf/10.2.0/../../../../m68k-atariextrabrowner-elf/lib/m68000/libc.a(malloc.o) (___sbrk)
/Users/davidebucci/Desktop/Synchronized/Vintage/Computing/Atari/ST/brown/lib/gcc/m68k-atariextrabrowner-elf/10.2.0/../../../../m68k-atariextrabrowner-elf/lib/m68000/libc.a(sysctl.o)
                              /Users/davidebucci/Desktop/Synchronized/Vintage/Computing/Atari/ST/brown/lib/gcc/m68k-atariextrabrowner-elf/10.2.0/../../../../m68k-atariextrabrowner-elf/lib/m68000/libc.a(getpagesize.o) (___sysctl)
/Users/davidebucci/Desktop/Synchronized/Vintage/Computing/Atari/ST/brown/lib/gcc/m68k-atariextrabrowner-elf/10.2.0/../../../../m68k-atariextrabrowner-elf/lib/m68000/libc.a(write.o)
                              /Users/davidebucci/Desktop/Synchronized/Vintage/Computing/Atari/ST/brown/lib/gcc/m68k-atariextrabrowner-elf/10.2.0/../../../../m68k-atariextrabrowner-elf/lib/m68000/libc.a(lseek.o) (_write)
/Users/davidebucci/Desktop/Synchronized/Vintage/Computing/Atari/ST/brown/lib/gcc/m68k-atariextrabrowner-elf/10.2.0/../../../../m68k-atariextrabrowner-elf/lib/m68000/libc.a(ident_sock.o)
                              /Users/davidebucci/Desktop/Synchronized/Vintage/Computing/Atari/ST/brown//../bigbrownbuild-git/mintlib-bigbrownbuild-10.2.0/startup/crt0.o (___Ident_socketlib)
/Users/davidebucci/Desktop/Synchronized/Vintage/Computing/Atari/ST/brown/lib/gcc/m68k-atariextrabrowner-elf/10.2.0/../../../../m68k-atariextrabrowner-elf/lib/m68000/libc.a(assert.o)
                              /Users/davidebucci/Desktop/Synchronized/Vintage/Computing/Atari/ST/brown/lib/gcc/m68k-atariextrabrowner-elf/10.2.0/../../../../m68k-atariextrabrowner-elf/lib/m68000/libc.a(malloc.o) (___assert_fail)
/Users/davidebucci/Desktop/Synchronized/Vintage/Computing/Atari/ST/brown/lib/gcc/m68k-atariextrabrowner-elf/10.2.0/../../../../m68k-atariextrabrowner-elf/lib/m68000/libc.a(console.o)
                              /Users/davidebucci/Desktop/Synchronized/Vintage/Computing/Atari/ST/brown/lib/gcc/m68k-atariextrabrowner-elf/10.2.0/../../../../m68k-atariextrabrowner-elf/lib/m68000/libc.a(read.o) (__console_read_byte)
/Users/davidebucci/Desktop/Synchronized/Vintage/Computing/Atari/ST/brown/lib/gcc/m68k-atariextrabrowner-elf/10.2.0/../../../../m68k-atariextrabrowner-elf/lib/m68000/libc.a(ctype.o)
                              /Users/davidebucci/Desktop/Synchronized/Vintage/Computing/Atari/ST/brown/lib/gcc/m68k-atariextrabrowner-elf/10.2.0/../../../../m68k-atariextrabrowner-elf/lib/m68000/libc.a(unx2dos.o) (__ctype)
/Users/davidebucci/Desktop/Synchronized/Vintage/Computing/Atari/ST/brown/lib/gcc/m68k-atariextrabrowner-elf/10.2.0/../../../../m68k-atariextrabrowner-elf/lib/m68000/libc.a(do_fstat.o)
                              /Users/davidebucci/Desktop/Synchronized/Vintage/Computing/Atari/ST/brown/lib/gcc/m68k-atariextrabrowner-elf/10.2.0/../../../../m68k-atariextrabrowner-elf/lib/m68000/libc.a(stdio_init.o) (___do_fstat)
/Users/davidebucci/Desktop/Synchronized/Vintage/Computing/Atari/ST/brown/lib/gcc/m68k-atariextrabrowner-elf/10.2.0/../../../../m68k-atariextrabrowner-elf/lib/m68000/libc.a(enoent.o)
                              /Users/davidebucci/Desktop/Synchronized/Vintage/Computing/Atari/ST/brown/lib/gcc/m68k-atariextrabrowner-elf/10.2.0/../../../../m68k-atariextrabrowner-elf/lib/m68000/libc.a(open.o) (__enoent)
/Users/davidebucci/Desktop/Synchronized/Vintage/Computing/Atari/ST/brown/lib/gcc/m68k-atariextrabrowner-elf/10.2.0/../../../../m68k-atariextrabrowner-elf/lib/m68000/libc.a(getcookie.o)
                              /Users/davidebucci/Desktop/Synchronized/Vintage/Computing/Atari/ST/brown/lib/gcc/m68k-atariextrabrowner-elf/10.2.0/../../../../m68k-atariextrabrowner-elf/lib/m68000/libc.a(main.o) (_Getcookie)
/Users/davidebucci/Desktop/Synchronized/Vintage/Computing/Atari/ST/brown/lib/gcc/m68k-atariextrabrowner-elf/10.2.0/../../../../m68k-atariextrabrowner-elf/lib/m68000/libc.a(getsysvar.o)
                              /Users/davidebucci/Desktop/Synchronized/Vintage/Computing/Atari/ST/brown/lib/gcc/m68k-atariextrabrowner-elf/10.2.0/../../../../m68k-atariextrabrowner-elf/lib/m68000/libc.a(main.o) (_get_sysvar)
/Users/davidebucci/Desktop/Synchronized/Vintage/Computing/Atari/ST/brown/lib/gcc/m68k-atariextrabrowner-elf/10.2.0/../../../../m68k-atariextrabrowner-elf/lib/m68000/libc.a(inode.o)
                              /Users/davidebucci/Desktop/Synchronized/Vintage/Computing/Atari/ST/brown/lib/gcc/m68k-atariextrabrowner-elf/10.2.0/../../../../m68k-atariextrabrowner-elf/lib/m68000/libc.a(do_fstat.o) (___inode)
/Users/davidebucci/Desktop/Synchronized/Vintage/Computing/Atari/ST/brown/lib/gcc/m68k-atariextrabrowner-elf/10.2.0/../../../../m68k-atariextrabrowner-elf/lib/m68000/libc.a(isatty.o)
                              /Users/davidebucci/Desktop/Synchronized/Vintage/Computing/Atari/ST/brown/lib/gcc/m68k-atariextrabrowner-elf/10.2.0/../../../../m68k-atariextrabrowner-elf/lib/m68000/libc.a(main.o) (_isatty)
/Users/davidebucci/Desktop/Synchronized/Vintage/Computing/Atari/ST/brown/lib/gcc/m68k-atariextrabrowner-elf/10.2.0/../../../../m68k-atariextrabrowner-elf/lib/m68000/libc.a(isctty.o)
                              /Users/davidebucci/Desktop/Synchronized/Vintage/Computing/Atari/ST/brown/lib/gcc/m68k-atariextrabrowner-elf/10.2.0/../../../../m68k-atariextrabrowner-elf/lib/m68000/libc.a(read.o) (__isctty)
/Users/davidebucci/Desktop/Synchronized/Vintage/Computing/Atari/ST/brown/lib/gcc/m68k-atariextrabrowner-elf/10.2.0/../../../../m68k-atariextrabrowner-elf/lib/m68000/libc.a(libc_exit.o)
                              /Users/davidebucci/Desktop/Synchronized/Vintage/Computing/Atari/ST/brown/lib/gcc/m68k-atariextrabrowner-elf/10.2.0/../../../../m68k-atariextrabrowner-elf/lib/m68000/libc.a(exit.o) (__exit)
/Users/davidebucci/Desktop/Synchronized/Vintage/Computing/Atari/ST/brown/lib/gcc/m68k-atariextrabrowner-elf/10.2.0/../../../../m68k-atariextrabrowner-elf/lib/m68000/libc.a(quickstat.o)
                              /Users/davidebucci/Desktop/Synchronized/Vintage/Computing/Atari/ST/brown/lib/gcc/m68k-atariextrabrowner-elf/10.2.0/../../../../m68k-atariextrabrowner-elf/lib/m68000/libc.a(open.o) (___quickstat)
/Users/davidebucci/Desktop/Synchronized/Vintage/Computing/Atari/ST/brown/lib/gcc/m68k-atariextrabrowner-elf/10.2.0/../../../../m68k-atariextrabrowner-elf/lib/m68000/libc.a(toxxx.o)
                              /Users/davidebucci/Desktop/Synchronized/Vintage/Computing/Atari/ST/brown/lib/gcc/m68k-atariextrabrowner-elf/10.2.0/../../../../m68k-atariextrabrowner-elf/lib/m68000/libc.a(strtol.o) (_toupper)
/Users/davidebucci/Desktop/Synchronized/Vintage/Computing/Atari/ST/brown/lib/gcc/m68k-atariextrabrowner-elf/10.2.0/../../../../m68k-atariextrabrowner-elf/lib/m68000/libc.a(unixtime.o)
                              /Users/davidebucci/Desktop/Synchronized/Vintage/Computing/Atari/ST/brown/lib/gcc/m68k-atariextrabrowner-elf/10.2.0/../../../../m68k-atariextrabrowner-elf/lib/m68000/libc.a(do_fstat.o) (___unixtime)
/Users/davidebucci/Desktop/Synchronized/Vintage/Computing/Atari/ST/brown/lib/gcc/m68k-atariextrabrowner-elf/10.2.0/../../../../m68k-atariextrabrowner-elf/lib/m68000/libc.a(raise.o)
                              /Users/davidebucci/Desktop/Synchronized/Vintage/Computing/Atari/ST/brown/lib/gcc/m68k-atariextrabrowner-elf/10.2.0/../../../../m68k-atariextrabrowner-elf/lib/m68000/libc.a(read.o) (_raise)
/Users/davidebucci/Desktop/Synchronized/Vintage/Computing/Atari/ST/brown/lib/gcc/m68k-atariextrabrowner-elf/10.2.0/../../../../m68k-atariextrabrowner-elf/lib/m68000/libc.a(fcloseall.o)
                              /Users/davidebucci/Desktop/Synchronized/Vintage/Computing/Atari/ST/brown/lib/gcc/m68k-atariextrabrowner-elf/10.2.0/../../../../m68k-atariextrabrowner-elf/lib/m68000/libc.a(exit.o) (___fcloseall)
/Users/davidebucci/Desktop/Synchronized/Vintage/Computing/Atari/ST/brown/lib/gcc/m68k-atariextrabrowner-elf/10.2.0/../../../../m68k-atariextrabrowner-elf/lib/m68000/libc.a(fflush.o)
                              /Users/davidebucci/Desktop/Synchronized/Vintage/Computing/Atari/ST/brown/lib/gcc/m68k-atariextrabrowner-elf/10.2.0/../../../../m68k-atariextrabrowner-elf/lib/m68000/libc.a(setvbuf.o) (_fflush)
/Users/davidebucci/Desktop/Synchronized/Vintage/Computing/Atari/ST/brown/lib/gcc/m68k-atariextrabrowner-elf/10.2.0/../../../../m68k-atariextrabrowner-elf/lib/m68000/libc.a(itoa-digits.o)
                              /Users/davidebucci/Desktop/Synchronized/Vintage/Computing/Atari/ST/brown/lib/gcc/m68k-atariextrabrowner-elf/10.2.0/../../../../m68k-atariextrabrowner-elf/lib/m68000/libc.a(assert.o) (__itoa_lower_digits)
/Users/davidebucci/Desktop/Synchronized/Vintage/Computing/Atari/ST/brown/lib/gcc/m68k-atariextrabrowner-elf/10.2.0/../../../../m68k-atariextrabrowner-elf/lib/m68000/libc.a(strtoul.o)
                              /Users/davidebucci/Desktop/Synchronized/Vintage/Computing/Atari/ST/brown/lib/gcc/m68k-atariextrabrowner-elf/10.2.0/../../../../m68k-atariextrabrowner-elf/lib/m68000/libc.a(open.o) (_strtoul)
/Users/davidebucci/Desktop/Synchronized/Vintage/Computing/Atari/ST/brown/lib/gcc/m68k-atariextrabrowner-elf/10.2.0/../../../../m68k-atariextrabrowner-elf/lib/m68000/libc.a(strchr.o)
                              /Users/davidebucci/Desktop/Synchronized/Vintage/Computing/Atari/ST/brown/lib/gcc/m68k-atariextrabrowner-elf/10.2.0/../../../../m68k-atariextrabrowner-elf/lib/m68000/libc.a(quickstat.o) (_index)
/Users/davidebucci/Desktop/Synchronized/Vintage/Computing/Atari/ST/brown/lib/gcc/m68k-atariextrabrowner-elf/10.2.0/../../../../m68k-atariextrabrowner-elf/lib/m68000/libc.a(localtime.o)
                              /Users/davidebucci/Desktop/Synchronized/Vintage/Computing/Atari/ST/brown/lib/gcc/m68k-atariextrabrowner-elf/10.2.0/../../../../m68k-atariextrabrowner-elf/lib/m68000/libc.a(unixtime.o) (_mktime)
/Users/davidebucci/Desktop/Synchronized/Vintage/Computing/Atari/ST/brown/lib/gcc/m68k-atariextrabrowner-elf/10.2.0/../../../../m68k-atariextrabrowner-elf/lib/m68000/libc.a(access.o)
                              /Users/davidebucci/Desktop/Synchronized/Vintage/Computing/Atari/ST/brown/lib/gcc/m68k-atariextrabrowner-elf/10.2.0/../../../../m68k-atariextrabrowner-elf/lib/m68000/libc.a(localtime.o) (_access)
/Users/davidebucci/Desktop/Synchronized/Vintage/Computing/Atari/ST/brown/lib/gcc/m68k-atariextrabrowner-elf/10.2.0/../../../../m68k-atariextrabrowner-elf/lib/m68000/libc.a(chmod.o)
                              /Users/davidebucci/Desktop/Synchronized/Vintage/Computing/Atari/ST/brown/lib/gcc/m68k-atariextrabrowner-elf/10.2.0/../../../../m68k-atariextrabrowner-elf/lib/m68000/libc.a(open.o) (_chmod)
/Users/davidebucci/Desktop/Synchronized/Vintage/Computing/Atari/ST/brown/lib/gcc/m68k-atariextrabrowner-elf/10.2.0/../../../../m68k-atariextrabrowner-elf/lib/m68000/libc.a(getegid.o)
                              /Users/davidebucci/Desktop/Synchronized/Vintage/Computing/Atari/ST/brown/lib/gcc/m68k-atariextrabrowner-elf/10.2.0/../../../../m68k-atariextrabrowner-elf/lib/m68000/libc.a(quickstat.o) (_getegid)
/Users/davidebucci/Desktop/Synchronized/Vintage/Computing/Atari/ST/brown/lib/gcc/m68k-atariextrabrowner-elf/10.2.0/../../../../m68k-atariextrabrowner-elf/lib/m68000/libc.a(geteuid.o)
                              /Users/davidebucci/Desktop/Synchronized/Vintage/Computing/Atari/ST/brown/lib/gcc/m68k-atariextrabrowner-elf/10.2.0/../../../../m68k-atariextrabrowner-elf/lib/m68000/libc.a(open.o) (_geteuid)
/Users/davidebucci/Desktop/Synchronized/Vintage/Computing/Atari/ST/brown/lib/gcc/m68k-atariextrabrowner-elf/10.2.0/../../../../m68k-atariextrabrowner-elf/lib/m68000/libc.a(getgid.o)
                              /Users/davidebucci/Desktop/Synchronized/Vintage/Computing/Atari/ST/brown/lib/gcc/m68k-atariextrabrowner-elf/10.2.0/../../../../m68k-atariextrabrowner-elf/lib/m68000/libc.a(do_fstat.o) (_getgid)
/Users/davidebucci/Desktop/Synchronized/Vintage/Computing/Atari/ST/brown/lib/gcc/m68k-atariextrabrowner-elf/10.2.0/../../../../m68k-atariextrabrowner-elf/lib/m68000/libc.a(getgroups.o)
                              /Users/davidebucci/Desktop/Synchronized/Vintage/Computing/Atari/ST/brown/lib/gcc/m68k-atariextrabrowner-elf/10.2.0/../../../../m68k-atariextrabrowner-elf/lib/m68000/libc.a(access.o) (_getgroups)
/Users/davidebucci/Desktop/Synchronized/Vintage/Computing/Atari/ST/brown/lib/gcc/m68k-atariextrabrowner-elf/10.2.0/../../../../m68k-atariextrabrowner-elf/lib/m68000/libc.a(getpid.o)
                              /Users/davidebucci/Desktop/Synchronized/Vintage/Computing/Atari/ST/brown/lib/gcc/m68k-atariextrabrowner-elf/10.2.0/../../../../m68k-atariextrabrowner-elf/lib/m68000/libc.a(raise.o) (___getpid)
/Users/davidebucci/Desktop/Synchronized/Vintage/Computing/Atari/ST/brown/lib/gcc/m68k-atariextrabrowner-elf/10.2.0/../../../../m68k-atariextrabrowner-elf/lib/m68000/libc.a(getuid.o)
                              /Users/davidebucci/Desktop/Synchronized/Vintage/Computing/Atari/ST/brown/lib/gcc/m68k-atariextrabrowner-elf/10.2.0/../../../../m68k-atariextrabrowner-elf/lib/m68000/libc.a(do_fstat.o) (_getuid)
/Users/davidebucci/Desktop/Synchronized/Vintage/Computing/Atari/ST/brown/lib/gcc/m68k-atariextrabrowner-elf/10.2.0/../../../../m68k-atariextrabrowner-elf/lib/m68000/libc.a(ioctl.o)
                              /Users/davidebucci/Desktop/Synchronized/Vintage/Computing/Atari/ST/brown/lib/gcc/m68k-atariextrabrowner-elf/10.2.0/../../../../m68k-atariextrabrowner-elf/lib/m68000/libc.a(open.o) (_ioctl)
/Users/davidebucci/Desktop/Synchronized/Vintage/Computing/Atari/ST/brown/lib/gcc/m68k-atariextrabrowner-elf/10.2.0/../../../../m68k-atariextrabrowner-elf/lib/m68000/libc.a(kill.o)
                              /Users/davidebucci/Desktop/Synchronized/Vintage/Computing/Atari/ST/brown/lib/gcc/m68k-atariextrabrowner-elf/10.2.0/../../../../m68k-atariextrabrowner-elf/lib/m68000/libc.a(raise.o) (___kill)
/Users/davidebucci/Desktop/Synchronized/Vintage/Computing/Atari/ST/brown/lib/gcc/m68k-atariextrabrowner-elf/10.2.0/../../../../m68k-atariextrabrowner-elf/lib/m68000/libc.a(time.o)
                              /Users/davidebucci/Desktop/Synchronized/Vintage/Computing/Atari/ST/brown/lib/gcc/m68k-atariextrabrowner-elf/10.2.0/../../../../m68k-atariextrabrowner-elf/lib/m68000/libc.a(do_fstat.o) (_time)
/Users/davidebucci/Desktop/Synchronized/Vintage/Computing/Atari/ST/brown/lib/gcc/m68k-atariextrabrowner-elf/10.2.0/../../../../m68k-atariextrabrowner-elf/lib/m68000/libc.a(abort.o)
                              /Users/davidebucci/Desktop/Synchronized/Vintage/Computing/Atari/ST/brown/lib/gcc/m68k-atariextrabrowner-elf/10.2.0/../../../../m68k-atariextrabrowner-elf/lib/m68000/libc.a(assert.o) (_abort)
/Users/davidebucci/Desktop/Synchronized/Vintage/Computing/Atari/ST/brown/lib/gcc/m68k-atariextrabrowner-elf/10.2.0/../../../../m68k-atariextrabrowner-elf/lib/m68000/libc.a(alglobal.o)
                              /Users/davidebucci/Desktop/Synchronized/Vintage/Computing/Atari/ST/brown/lib/gcc/m68k-atariextrabrowner-elf/10.2.0/../../../../m68k-atariextrabrowner-elf/lib/m68000/libc.a(ioctl.o) (___funcs)
/Users/davidebucci/Desktop/Synchronized/Vintage/Computing/Atari/ST/brown/lib/gcc/m68k-atariextrabrowner-elf/10.2.0/../../../../m68k-atariextrabrowner-elf/lib/m68000/libc.a(calloc.o)
                              /Users/davidebucci/Desktop/Synchronized/Vintage/Computing/Atari/ST/brown/lib/gcc/m68k-atariextrabrowner-elf/10.2.0/../../../../m68k-atariextrabrowner-elf/lib/m68000/libc.a(localtime.o) (_calloc)
/Users/davidebucci/Desktop/Synchronized/Vintage/Computing/Atari/ST/brown/lib/gcc/m68k-atariextrabrowner-elf/10.2.0/../../../../m68k-atariextrabrowner-elf/lib/m68000/libc.a(do_stat.o)
                              /Users/davidebucci/Desktop/Synchronized/Vintage/Computing/Atari/ST/brown/lib/gcc/m68k-atariextrabrowner-elf/10.2.0/../../../../m68k-atariextrabrowner-elf/lib/m68000/libc.a(enoent.o) (___sys_stat)
/Users/davidebucci/Desktop/Synchronized/Vintage/Computing/Atari/ST/brown/lib/gcc/m68k-atariextrabrowner-elf/10.2.0/../../../../m68k-atariextrabrowner-elf/lib/m68000/libc.a(uidgid.o)
                              /Users/davidebucci/Desktop/Synchronized/Vintage/Computing/Atari/ST/brown/lib/gcc/m68k-atariextrabrowner-elf/10.2.0/../../../../m68k-atariextrabrowner-elf/lib/m68000/libc.a(getgid.o) (___gid)
/Users/davidebucci/Desktop/Synchronized/Vintage/Computing/Atari/ST/brown/lib/gcc/m68k-atariextrabrowner-elf/10.2.0/../../../../m68k-atariextrabrowner-elf/lib/m68000/libc.a(getpwuid.o)
                              /Users/davidebucci/Desktop/Synchronized/Vintage/Computing/Atari/ST/brown/lib/gcc/m68k-atariextrabrowner-elf/10.2.0/../../../../m68k-atariextrabrowner-elf/lib/m68000/libc.a(getgroups.o) (_getpwuid)
/Users/davidebucci/Desktop/Synchronized/Vintage/Computing/Atari/ST/brown/lib/gcc/m68k-atariextrabrowner-elf/10.2.0/../../../../m68k-atariextrabrowner-elf/lib/m68000/libc.a(getpwuid_r.o)
                              /Users/davidebucci/Desktop/Synchronized/Vintage/Computing/Atari/ST/brown/lib/gcc/m68k-atariextrabrowner-elf/10.2.0/../../../../m68k-atariextrabrowner-elf/lib/m68000/libc.a(getpwuid.o) (___getpwuid_r)
/Users/davidebucci/Desktop/Synchronized/Vintage/Computing/Atari/ST/brown/lib/gcc/m68k-atariextrabrowner-elf/10.2.0/../../../../m68k-atariextrabrowner-elf/lib/m68000/libc.a(grp.o)
                              /Users/davidebucci/Desktop/Synchronized/Vintage/Computing/Atari/ST/brown/lib/gcc/m68k-atariextrabrowner-elf/10.2.0/../../../../m68k-atariextrabrowner-elf/lib/m68000/libc.a(getgroups.o) (_setgrent)
/Users/davidebucci/Desktop/Synchronized/Vintage/Computing/Atari/ST/brown/lib/gcc/m68k-atariextrabrowner-elf/10.2.0/../../../../m68k-atariextrabrowner-elf/lib/m68000/libc.a(rewind.o)
                              /Users/davidebucci/Desktop/Synchronized/Vintage/Computing/Atari/ST/brown/lib/gcc/m68k-atariextrabrowner-elf/10.2.0/../../../../m68k-atariextrabrowner-elf/lib/m68000/libc.a(grp.o) (_rewind)
/Users/davidebucci/Desktop/Synchronized/Vintage/Computing/Atari/ST/brown/lib/gcc/m68k-atariextrabrowner-elf/10.2.0/../../../../m68k-atariextrabrowner-elf/lib/m68000/libc.a(asctime.o)
                              /Users/davidebucci/Desktop/Synchronized/Vintage/Computing/Atari/ST/brown/lib/gcc/m68k-atariextrabrowner-elf/10.2.0/../../../../m68k-atariextrabrowner-elf/lib/m68000/libc.a(localtime.o) (_asctime_r)
/Users/davidebucci/Desktop/Synchronized/Vintage/Computing/Atari/ST/brown/lib/gcc/m68k-atariextrabrowner-elf/10.2.0/../../../../m68k-atariextrabrowner-elf/lib/m68000/libc.a(strftime.o)
                              /Users/davidebucci/Desktop/Synchronized/Vintage/Computing/Atari/ST/brown/lib/gcc/m68k-atariextrabrowner-elf/10.2.0/../../../../m68k-atariextrabrowner-elf/lib/m68000/libc.a(asctime.o) (_strftime)
/Users/davidebucci/Desktop/Synchronized/Vintage/Computing/Atari/ST/brown/lib/gcc/m68k-atariextrabrowner-elf/10.2.0/../../../../m68k-atariextrabrowner-elf/lib/m68000/libc.a(gettimeofday.o)
                              /Users/davidebucci/Desktop/Synchronized/Vintage/Computing/Atari/ST/brown/lib/gcc/m68k-atariextrabrowner-elf/10.2.0/../../../../m68k-atariextrabrowner-elf/lib/m68000/libc.a(time.o) (___gettimeofday)
/Users/davidebucci/Desktop/Synchronized/Vintage/Computing/Atari/ST/brown/lib/gcc/m68k-atariextrabrowner-elf/10.2.0/../../../../m68k-atariextrabrowner-elf/lib/m68000/libc.a(setlocale.o)
                              /Users/davidebucci/Desktop/Synchronized/Vintage/Computing/Atari/ST/brown/lib/gcc/m68k-atariextrabrowner-elf/10.2.0/../../../../m68k-atariextrabrowner-elf/lib/m68000/libc.a(strftime.o) (_setlocale)
/Users/davidebucci/Desktop/Synchronized/Vintage/Computing/Atari/ST/brown/lib/gcc/m68k-atariextrabrowner-elf/10.2.0/../../../../m68k-atariextrabrowner-elf/lib/m68000/libc.a(fgetpwent_r.o)
                              /Users/davidebucci/Desktop/Synchronized/Vintage/Computing/Atari/ST/brown/lib/gcc/m68k-atariextrabrowner-elf/10.2.0/../../../../m68k-atariextrabrowner-elf/lib/m68000/libc.a(getpwuid_r.o) (_fgetpwent_r)
/Users/davidebucci/Desktop/Synchronized/Vintage/Computing/Atari/ST/brown/lib/gcc/m68k-atariextrabrowner-elf/10.2.0/../../../../m68k-atariextrabrowner-elf/lib/m68000/libc.a(clearerr.o)
                              /Users/davidebucci/Desktop/Synchronized/Vintage/Computing/Atari/ST/brown/lib/gcc/m68k-atariextrabrowner-elf/10.2.0/../../../../m68k-atariextrabrowner-elf/lib/m68000/libc.a(rewind.o) (_clearerr)
/Users/davidebucci/Desktop/Synchronized/Vintage/Computing/Atari/ST/brown/lib/gcc/m68k-atariextrabrowner-elf/10.2.0/../../../../m68k-atariextrabrowner-elf/lib/m68000/libc.a(fprintf.o)
                              /Users/davidebucci/Desktop/Synchronized/Vintage/Computing/Atari/ST/brown/lib/gcc/m68k-atariextrabrowner-elf/10.2.0/../../../../m68k-atariextrabrowner-elf/lib/m68000/libc.a(strftime.o) (_fprintf)
/Users/davidebucci/Desktop/Synchronized/Vintage/Computing/Atari/ST/brown/lib/gcc/m68k-atariextrabrowner-elf/10.2.0/../../../../m68k-atariextrabrowner-elf/lib/m68000/libc.a(fputc.o)
                              /Users/davidebucci/Desktop/Synchronized/Vintage/Computing/Atari/ST/brown/lib/gcc/m68k-atariextrabrowner-elf/10.2.0/../../../../m68k-atariextrabrowner-elf/lib/m68000/libc.a(strftime.o) (_fputc)
/Users/davidebucci/Desktop/Synchronized/Vintage/Computing/Atari/ST/brown/lib/gcc/m68k-atariextrabrowner-elf/10.2.0/../../../../m68k-atariextrabrowner-elf/lib/m68000/libc.a(fseek.o)
                              /Users/davidebucci/Desktop/Synchronized/Vintage/Computing/Atari/ST/brown/lib/gcc/m68k-atariextrabrowner-elf/10.2.0/../../../../m68k-atariextrabrowner-elf/lib/m68000/libc.a(rewind.o) (_fseek)
/Users/davidebucci/Desktop/Synchronized/Vintage/Computing/Atari/ST/brown/lib/gcc/m68k-atariextrabrowner-elf/10.2.0/../../../../m68k-atariextrabrowner-elf/lib/m68000/libc.a(fwrite.o)
                              /Users/davidebucci/Desktop/Synchronized/Vintage/Computing/Atari/ST/brown/lib/gcc/m68k-atariextrabrowner-elf/10.2.0/../../../../m68k-atariextrabrowner-elf/lib/m68000/libc.a(strftime.o) (_fwrite)
/Users/davidebucci/Desktop/Synchronized/Vintage/Computing/Atari/ST/brown/lib/gcc/m68k-atariextrabrowner-elf/10.2.0/../../../../m68k-atariextrabrowner-elf/lib/m68000/libc.a(sprintf.o)
                              /Users/davidebucci/Desktop/Synchronized/Vintage/Computing/Atari/ST/brown/lib/gcc/m68k-atariextrabrowner-elf/10.2.0/../../../../m68k-atariextrabrowner-elf/lib/m68000/libc.a(asctime.o) (_sprintf)
/Users/davidebucci/Desktop/Synchronized/Vintage/Computing/Atari/ST/brown/lib/gcc/m68k-atariextrabrowner-elf/10.2.0/../../../../m68k-atariextrabrowner-elf/lib/m68000/libc.a(ungetc.o)
                              /Users/davidebucci/Desktop/Synchronized/Vintage/Computing/Atari/ST/brown/lib/gcc/m68k-atariextrabrowner-elf/10.2.0/../../../../m68k-atariextrabrowner-elf/lib/m68000/libc.a(fgetpwent_r.o) (_ungetc)
/Users/davidebucci/Desktop/Synchronized/Vintage/Computing/Atari/ST/brown/lib/gcc/m68k-atariextrabrowner-elf/10.2.0/../../../../m68k-atariextrabrowner-elf/lib/m68000/libc.a(vfprintf.o)
                              /Users/davidebucci/Desktop/Synchronized/Vintage/Computing/Atari/ST/brown/lib/gcc/m68k-atariextrabrowner-elf/10.2.0/../../../../m68k-atariextrabrowner-elf/lib/m68000/libc.a(fprintf.o) (_vfprintf)
/Users/davidebucci/Desktop/Synchronized/Vintage/Computing/Atari/ST/brown/lib/gcc/m68k-atariextrabrowner-elf/10.2.0/../../../../m68k-atariextrabrowner-elf/lib/m68000/libc.a(vsprintf.o)
                              /Users/davidebucci/Desktop/Synchronized/Vintage/Computing/Atari/ST/brown/lib/gcc/m68k-atariextrabrowner-elf/10.2.0/../../../../m68k-atariextrabrowner-elf/lib/m68000/libc.a(sprintf.o) (_vsprintf)
/Users/davidebucci/Desktop/Synchronized/Vintage/Computing/Atari/ST/brown/lib/gcc/m68k-atariextrabrowner-elf/10.2.0/../../../../m68k-atariextrabrowner-elf/lib/m68000/libc.a(memchr.o)
                              /Users/davidebucci/Desktop/Synchronized/Vintage/Computing/Atari/ST/brown/lib/gcc/m68k-atariextrabrowner-elf/10.2.0/../../../../m68k-atariextrabrowner-elf/lib/m68000/libc.a(fwrite.o) (_memchr)
/Users/davidebucci/Desktop/Synchronized/Vintage/Computing/Atari/ST/brown/lib/gcc/m68k-atariextrabrowner-elf/10.2.0/../../../../m68k-atariextrabrowner-elf/lib/m68000/libc.a(mempcpy.o)
                              /Users/davidebucci/Desktop/Synchronized/Vintage/Computing/Atari/ST/brown/lib/gcc/m68k-atariextrabrowner-elf/10.2.0/../../../../m68k-atariextrabrowner-elf/lib/m68000/libc.a(vfprintf.o) (___mempcpy)
/Users/davidebucci/Desktop/Synchronized/Vintage/Computing/Atari/ST/brown/lib/gcc/m68k-atariextrabrowner-elf/10.2.0/../../../../m68k-atariextrabrowner-elf/lib/m68000/libc.a(strcpy.o)
                              /Users/davidebucci/Desktop/Synchronized/Vintage/Computing/Atari/ST/brown/lib/gcc/m68k-atariextrabrowner-elf/10.2.0/../../../../m68k-atariextrabrowner-elf/lib/m68000/libc.a(strftime.o) (_strcpy)
/Users/davidebucci/Desktop/Synchronized/Vintage/Computing/Atari/ST/brown/lib/gcc/m68k-atariextrabrowner-elf/10.2.0/../../../../m68k-atariextrabrowner-elf/lib/m68000/libc.a(strerror_r.o)
                              /Users/davidebucci/Desktop/Synchronized/Vintage/Computing/Atari/ST/brown/lib/gcc/m68k-atariextrabrowner-elf/10.2.0/../../../../m68k-atariextrabrowner-elf/lib/m68000/libc.a(vfprintf.o) (___strerror_r)
/Users/davidebucci/Desktop/Synchronized/Vintage/Computing/Atari/ST/brown/lib/gcc/m68k-atariextrabrowner-elf/10.2.0/../../../../m68k-atariextrabrowner-elf/lib/m68000/libc.a(strnlen.o)
                              /Users/davidebucci/Desktop/Synchronized/Vintage/Computing/Atari/ST/brown/lib/gcc/m68k-atariextrabrowner-elf/10.2.0/../../../../m68k-atariextrabrowner-elf/lib/m68000/libc.a(vfprintf.o) (_strnlen)
/Users/davidebucci/Desktop/Synchronized/Vintage/Computing/Atari/ST/brown/lib/gcc/m68k-atariextrabrowner-elf/10.2.0/../../../../m68k-atariextrabrowner-elf/lib/m68000/libc.a(_itoa.o)
                              /Users/davidebucci/Desktop/Synchronized/Vintage/Computing/Atari/ST/brown/lib/gcc/m68k-atariextrabrowner-elf/10.2.0/../../../../m68k-atariextrabrowner-elf/lib/m68000/libc.a(vfprintf.o) (__itoa)
/Users/davidebucci/Desktop/Synchronized/Vintage/Computing/Atari/ST/brown/lib/gcc/m68k-atariextrabrowner-elf/10.2.0/../../../../m68k-atariextrabrowner-elf/lib/m68000/libc.a(lockfile.o)
                              /Users/davidebucci/Desktop/Synchronized/Vintage/Computing/Atari/ST/brown/lib/gcc/m68k-atariextrabrowner-elf/10.2.0/../../../../m68k-atariextrabrowner-elf/lib/m68000/libc.a(vfprintf.o) (___flockfile)
/Users/davidebucci/Desktop/Synchronized/Vintage/Computing/Atari/ST/brown/lib/gcc/m68k-atariextrabrowner-elf/10.2.0/../../../../m68k-atariextrabrowner-elf/lib/m68000/libc.a(printf_fp.o)
                              /Users/davidebucci/Desktop/Synchronized/Vintage/Computing/Atari/ST/brown/lib/gcc/m68k-atariextrabrowner-elf/10.2.0/../../../../m68k-atariextrabrowner-elf/lib/m68000/libc.a(vfprintf.o) (___printf_fp)
/Users/davidebucci/Desktop/Synchronized/Vintage/Computing/Atari/ST/brown/lib/gcc/m68k-atariextrabrowner-elf/10.2.0/../../../../m68k-atariextrabrowner-elf/lib/m68000/libc.a(printf_fphex.o)
                              /Users/davidebucci/Desktop/Synchronized/Vintage/Computing/Atari/ST/brown/lib/gcc/m68k-atariextrabrowner-elf/10.2.0/../../../../m68k-atariextrabrowner-elf/lib/m68000/libc.a(vfprintf.o) (___printf_fphex)
/Users/davidebucci/Desktop/Synchronized/Vintage/Computing/Atari/ST/brown/lib/gcc/m68k-atariextrabrowner-elf/10.2.0/../../../../m68k-atariextrabrowner-elf/lib/m68000/libc.a(reg-printf.o)
                              /Users/davidebucci/Desktop/Synchronized/Vintage/Computing/Atari/ST/brown/lib/gcc/m68k-atariextrabrowner-elf/10.2.0/../../../../m68k-atariextrabrowner-elf/lib/m68000/libc.a(vfprintf.o) (___printf_function_table)
/Users/davidebucci/Desktop/Synchronized/Vintage/Computing/Atari/ST/brown/lib/gcc/m68k-atariextrabrowner-elf/10.2.0/../../../../m68k-atariextrabrowner-elf/lib/m68000/libc.a(fpioconst.o)
                              /Users/davidebucci/Desktop/Synchronized/Vintage/Computing/Atari/ST/brown/lib/gcc/m68k-atariextrabrowner-elf/10.2.0/../../../../m68k-atariextrabrowner-elf/lib/m68000/libc.a(printf_fp.o) (__fpioconst_pow10)
/Users/davidebucci/Desktop/Synchronized/Vintage/Computing/Atari/ST/brown/lib/gcc/m68k-atariextrabrowner-elf/10.2.0/../../../../m68k-atariextrabrowner-elf/lib/m68000/libc.a(strerror.o)
                              /Users/davidebucci/Desktop/Synchronized/Vintage/Computing/Atari/ST/brown/lib/gcc/m68k-atariextrabrowner-elf/10.2.0/../../../../m68k-atariextrabrowner-elf/lib/m68000/libc.a(strerror_r.o) (_strerror)
/Users/davidebucci/Desktop/Synchronized/Vintage/Computing/Atari/ST/brown/lib/gcc/m68k-atariextrabrowner-elf/10.2.0/../../../../m68k-atariextrabrowner-elf/lib/m68000/libc.a(dbl2mpn.o)
                              /Users/davidebucci/Desktop/Synchronized/Vintage/Computing/Atari/ST/brown/lib/gcc/m68k-atariextrabrowner-elf/10.2.0/../../../../m68k-atariextrabrowner-elf/lib/m68000/libc.a(printf_fp.o) (___mpn_extract_double)
/Users/davidebucci/Desktop/Synchronized/Vintage/Computing/Atari/ST/brown/lib/gcc/m68k-atariextrabrowner-elf/10.2.0/../../../../m68k-atariextrabrowner-elf/lib/m68000/libc.a(ldbl2mpn.o)
                              /Users/davidebucci/Desktop/Synchronized/Vintage/Computing/Atari/ST/brown/lib/gcc/m68k-atariextrabrowner-elf/10.2.0/../../../../m68k-atariextrabrowner-elf/lib/m68000/libc.a(printf_fp.o) (___mpn_extract_long_double)
/Users/davidebucci/Desktop/Synchronized/Vintage/Computing/Atari/ST/brown/lib/gcc/m68k-atariextrabrowner-elf/10.2.0/../../../../m68k-atariextrabrowner-elf/lib/m68000/libc.a(mp_clz_tab.o)
                              /Users/davidebucci/Desktop/Synchronized/Vintage/Computing/Atari/ST/brown/lib/gcc/m68k-atariextrabrowner-elf/10.2.0/../../../../m68k-atariextrabrowner-elf/lib/m68000/libc.a(printf_fp.o) (___clz_tab)
/Users/davidebucci/Desktop/Synchronized/Vintage/Computing/Atari/ST/brown/lib/gcc/m68k-atariextrabrowner-elf/10.2.0/../../../../m68k-atariextrabrowner-elf/lib/m68000/libc.a(mpn-cmp.o)
                              /Users/davidebucci/Desktop/Synchronized/Vintage/Computing/Atari/ST/brown/lib/gcc/m68k-atariextrabrowner-elf/10.2.0/../../../../m68k-atariextrabrowner-elf/lib/m68000/libc.a(printf_fp.o) (___mpn_cmp)
/Users/davidebucci/Desktop/Synchronized/Vintage/Computing/Atari/ST/brown/lib/gcc/m68k-atariextrabrowner-elf/10.2.0/../../../../m68k-atariextrabrowner-elf/lib/m68000/libc.a(mpn-divrem.o)
                              /Users/davidebucci/Desktop/Synchronized/Vintage/Computing/Atari/ST/brown/lib/gcc/m68k-atariextrabrowner-elf/10.2.0/../../../../m68k-atariextrabrowner-elf/lib/m68000/libc.a(printf_fp.o) (___mpn_divrem)
/Users/davidebucci/Desktop/Synchronized/Vintage/Computing/Atari/ST/brown/lib/gcc/m68k-atariextrabrowner-elf/10.2.0/../../../../m68k-atariextrabrowner-elf/lib/m68000/libc.a(mpn-lshift.o)
                              /Users/davidebucci/Desktop/Synchronized/Vintage/Computing/Atari/ST/brown/lib/gcc/m68k-atariextrabrowner-elf/10.2.0/../../../../m68k-atariextrabrowner-elf/lib/m68000/libc.a(printf_fp.o) (___mpn_lshift)
/Users/davidebucci/Desktop/Synchronized/Vintage/Computing/Atari/ST/brown/lib/gcc/m68k-atariextrabrowner-elf/10.2.0/../../../../m68k-atariextrabrowner-elf/lib/m68000/libc.a(mpn-mul.o)
                              /Users/davidebucci/Desktop/Synchronized/Vintage/Computing/Atari/ST/brown/lib/gcc/m68k-atariextrabrowner-elf/10.2.0/../../../../m68k-atariextrabrowner-elf/lib/m68000/libc.a(printf_fp.o) (___mpn_mul)
/Users/davidebucci/Desktop/Synchronized/Vintage/Computing/Atari/ST/brown/lib/gcc/m68k-atariextrabrowner-elf/10.2.0/../../../../m68k-atariextrabrowner-elf/lib/m68000/libc.a(mpn-mul_1.o)
                              /Users/davidebucci/Desktop/Synchronized/Vintage/Computing/Atari/ST/brown/lib/gcc/m68k-atariextrabrowner-elf/10.2.0/../../../../m68k-atariextrabrowner-elf/lib/m68000/libc.a(printf_fp.o) (___mpn_mul_1)
/Users/davidebucci/Desktop/Synchronized/Vintage/Computing/Atari/ST/brown/lib/gcc/m68k-atariextrabrowner-elf/10.2.0/../../../../m68k-atariextrabrowner-elf/lib/m68000/libc.a(mpn-mul_n.o)
                              /Users/davidebucci/Desktop/Synchronized/Vintage/Computing/Atari/ST/brown/lib/gcc/m68k-atariextrabrowner-elf/10.2.0/../../../../m68k-atariextrabrowner-elf/lib/m68000/libc.a(mpn-mul.o) (___mpn_impn_mul_n)
/Users/davidebucci/Desktop/Synchronized/Vintage/Computing/Atari/ST/brown/lib/gcc/m68k-atariextrabrowner-elf/10.2.0/../../../../m68k-atariextrabrowner-elf/lib/m68000/libc.a(mpn-rshift.o)
                              /Users/davidebucci/Desktop/Synchronized/Vintage/Computing/Atari/ST/brown/lib/gcc/m68k-atariextrabrowner-elf/10.2.0/../../../../m68k-atariextrabrowner-elf/lib/m68000/libc.a(printf_fp.o) (___mpn_rshift)
/Users/davidebucci/Desktop/Synchronized/Vintage/Computing/Atari/ST/brown/lib/gcc/m68k-atariextrabrowner-elf/10.2.0/../../../../m68k-atariextrabrowner-elf/lib/m68000/libc.a(mpn-sub_n.o)
                              /Users/davidebucci/Desktop/Synchronized/Vintage/Computing/Atari/ST/brown/lib/gcc/m68k-atariextrabrowner-elf/10.2.0/../../../../m68k-atariextrabrowner-elf/lib/m68000/libc.a(mpn-divrem.o) (___mpn_sub_n)
/Users/davidebucci/Desktop/Synchronized/Vintage/Computing/Atari/ST/brown/lib/gcc/m68k-atariextrabrowner-elf/10.2.0/../../../../m68k-atariextrabrowner-elf/lib/m68000/libc.a(mpn-submul_1.o)
                              /Users/davidebucci/Desktop/Synchronized/Vintage/Computing/Atari/ST/brown/lib/gcc/m68k-atariextrabrowner-elf/10.2.0/../../../../m68k-atariextrabrowner-elf/lib/m68000/libc.a(mpn-divrem.o) (___mpn_submul_1)
/Users/davidebucci/Desktop/Synchronized/Vintage/Computing/Atari/ST/brown/lib/gcc/m68k-atariextrabrowner-elf/10.2.0/../../../../m68k-atariextrabrowner-elf/lib/m68000/libc.a(s_isinf.o)
                              /Users/davidebucci/Desktop/Synchronized/Vintage/Computing/Atari/ST/brown/lib/gcc/m68k-atariextrabrowner-elf/10.2.0/../../../../m68k-atariextrabrowner-elf/lib/m68000/libc.a(printf_fp.o) (___isinf)
/Users/davidebucci/Desktop/Synchronized/Vintage/Computing/Atari/ST/brown/lib/gcc/m68k-atariextrabrowner-elf/10.2.0/../../../../m68k-atariextrabrowner-elf/lib/m68000/libc.a(s_isinfl.o)
                              /Users/davidebucci/Desktop/Synchronized/Vintage/Computing/Atari/ST/brown/lib/gcc/m68k-atariextrabrowner-elf/10.2.0/../../../../m68k-atariextrabrowner-elf/lib/m68000/libc.a(printf_fp.o) (___isinfl)
/Users/davidebucci/Desktop/Synchronized/Vintage/Computing/Atari/ST/brown/lib/gcc/m68k-atariextrabrowner-elf/10.2.0/../../../../m68k-atariextrabrowner-elf/lib/m68000/libc.a(s_isnan.o)
                              /Users/davidebucci/Desktop/Synchronized/Vintage/Computing/Atari/ST/brown/lib/gcc/m68k-atariextrabrowner-elf/10.2.0/../../../../m68k-atariextrabrowner-elf/lib/m68000/libc.a(printf_fp.o) (___isnan)
/Users/davidebucci/Desktop/Synchronized/Vintage/Computing/Atari/ST/brown/lib/gcc/m68k-atariextrabrowner-elf/10.2.0/../../../../m68k-atariextrabrowner-elf/lib/m68000/libc.a(s_isnanl.o)
                              /Users/davidebucci/Desktop/Synchronized/Vintage/Computing/Atari/ST/brown/lib/gcc/m68k-atariextrabrowner-elf/10.2.0/../../../../m68k-atariextrabrowner-elf/lib/m68000/libc.a(printf_fp.o) (___isnanl)
/Users/davidebucci/Desktop/Synchronized/Vintage/Computing/Atari/ST/brown/lib/gcc/m68k-atariextrabrowner-elf/10.2.0/../../../../m68k-atariextrabrowner-elf/lib/m68000/libc.a(s_signbit.o)
                              /Users/davidebucci/Desktop/Synchronized/Vintage/Computing/Atari/ST/brown/lib/gcc/m68k-atariextrabrowner-elf/10.2.0/../../../../m68k-atariextrabrowner-elf/lib/m68000/libc.a(printf_fphex.o) (___signbit)
/Users/davidebucci/Desktop/Synchronized/Vintage/Computing/Atari/ST/brown/lib/gcc/m68k-atariextrabrowner-elf/10.2.0/../../../../m68k-atariextrabrowner-elf/lib/m68000/libc.a(s_signbitl.o)
                              /Users/davidebucci/Desktop/Synchronized/Vintage/Computing/Atari/ST/brown/lib/gcc/m68k-atariextrabrowner-elf/10.2.0/../../../../m68k-atariextrabrowner-elf/lib/m68000/libc.a(printf_fphex.o) (___signbitl)
/Users/davidebucci/Desktop/Synchronized/Vintage/Computing/Atari/ST/brown/lib/gcc/m68k-atariextrabrowner-elf/10.2.0/../../../../m68k-atariextrabrowner-elf/lib/m68000/libc.a(snprintf.o)
                              /Users/davidebucci/Desktop/Synchronized/Vintage/Computing/Atari/ST/brown/lib/gcc/m68k-atariextrabrowner-elf/10.2.0/../../../../m68k-atariextrabrowner-elf/lib/m68000/libc.a(strerror.o) (_snprintf)
/Users/davidebucci/Desktop/Synchronized/Vintage/Computing/Atari/ST/brown/lib/gcc/m68k-atariextrabrowner-elf/10.2.0/../../../../m68k-atariextrabrowner-elf/lib/m68000/libc.a(vsnprintf.o)
                              /Users/davidebucci/Desktop/Synchronized/Vintage/Computing/Atari/ST/brown/lib/gcc/m68k-atariextrabrowner-elf/10.2.0/../../../../m68k-atariextrabrowner-elf/lib/m68000/libc.a(snprintf.o) (___vsnprintf)
/Users/davidebucci/Desktop/Synchronized/Vintage/Computing/Atari/ST/brown/lib/gcc/m68k-atariextrabrowner-elf/10.2.0/../../../../m68k-atariextrabrowner-elf/lib/m68000/libc.a(mpn-add_n.o)
                              /Users/davidebucci/Desktop/Synchronized/Vintage/Computing/Atari/ST/brown/lib/gcc/m68k-atariextrabrowner-elf/10.2.0/../../../../m68k-atariextrabrowner-elf/lib/m68000/libc.a(mpn-divrem.o) (___mpn_add_n)
/Users/davidebucci/Desktop/Synchronized/Vintage/Computing/Atari/ST/brown/lib/gcc/m68k-atariextrabrowner-elf/10.2.0/../../../../m68k-atariextrabrowner-elf/lib/m68000/libc.a(mpn-addmul_1.o)
                              /Users/davidebucci/Desktop/Synchronized/Vintage/Computing/Atari/ST/brown/lib/gcc/m68k-atariextrabrowner-elf/10.2.0/../../../../m68k-atariextrabrowner-elf/lib/m68000/libc.a(mpn-mul.o) (___mpn_addmul_1)
/Users/davidebucci/Desktop/Synchronized/Vintage/Computing/Atari/ST/brown//lib/gcc/m68k-atariextrabrowner-elf/10.2.0/m68000/libgcc.a(_mulsi3.o)
                              /Users/davidebucci/Desktop/Synchronized/Vintage/Computing/Atari/ST/brown/lib/gcc/m68k-atariextrabrowner-elf/10.2.0/../../../../m68k-atariextrabrowner-elf/lib/m68000/libc.a(strtol.o) (___mulsi3)
/Users/davidebucci/Desktop/Synchronized/Vintage/Computing/Atari/ST/brown//lib/gcc/m68k-atariextrabrowner-elf/10.2.0/m68000/libgcc.a(_udivsi3.o)
                              /Users/davidebucci/Desktop/Synchronized/Vintage/Computing/Atari/ST/brown/lib/gcc/m68k-atariextrabrowner-elf/10.2.0/../../../../m68k-atariextrabrowner-elf/lib/m68000/libc.a(strtol.o) (___udivsi3)
/Users/davidebucci/Desktop/Synchronized/Vintage/Computing/Atari/ST/brown//lib/gcc/m68k-atariextrabrowner-elf/10.2.0/m68000/libgcc.a(_divsi3.o)
                              /Users/davidebucci/Desktop/Synchronized/Vintage/Computing/Atari/ST/brown/lib/gcc/m68k-atariextrabrowner-elf/10.2.0/../../../../m68k-atariextrabrowner-elf/lib/m68000/libc.a(localtime.o) (___divsi3)
/Users/davidebucci/Desktop/Synchronized/Vintage/Computing/Atari/ST/brown//lib/gcc/m68k-atariextrabrowner-elf/10.2.0/m68000/libgcc.a(_umodsi3.o)
                              /Users/davidebucci/Desktop/Synchronized/Vintage/Computing/Atari/ST/brown/lib/gcc/m68k-atariextrabrowner-elf/10.2.0/../../../../m68k-atariextrabrowner-elf/lib/m68000/libc.a(internals.o) (___umodsi3)
/Users/davidebucci/Desktop/Synchronized/Vintage/Computing/Atari/ST/brown//lib/gcc/m68k-atariextrabrowner-elf/10.2.0/m68000/libgcc.a(_modsi3.o)
                              /Users/davidebucci/Desktop/Synchronized/Vintage/Computing/Atari/ST/brown/lib/gcc/m68k-atariextrabrowner-elf/10.2.0/../../../../m68k-atariextrabrowner-elf/lib/m68000/libc.a(localtime.o) (___modsi3)
/Users/davidebucci/Desktop/Synchronized/Vintage/Computing/Atari/ST/brown//lib/gcc/m68k-atariextrabrowner-elf/10.2.0/m68000/libgcc.a(_double.o)
                              /Users/davidebucci/Desktop/Synchronized/Vintage/Computing/Atari/ST/brown/lib/gcc/m68k-atariextrabrowner-elf/10.2.0/../../../../m68k-atariextrabrowner-elf/lib/m68000/libc.a(localtime.o) (___adddf3)
/Users/davidebucci/Desktop/Synchronized/Vintage/Computing/Atari/ST/brown//lib/gcc/m68k-atariextrabrowner-elf/10.2.0/m68000/libgcc.a(_floatex.o)
                              /Users/davidebucci/Desktop/Synchronized/Vintage/Computing/Atari/ST/brown//lib/gcc/m68k-atariextrabrowner-elf/10.2.0/m68000/libgcc.a(_double.o) (__fpCCR)
/Users/davidebucci/Desktop/Synchronized/Vintage/Computing/Atari/ST/brown//lib/gcc/m68k-atariextrabrowner-elf/10.2.0/m68000/libgcc.a(_ltdf2.o)
                              /Users/davidebucci/Desktop/Synchronized/Vintage/Computing/Atari/ST/brown/lib/gcc/m68k-atariextrabrowner-elf/10.2.0/../../../../m68k-atariextrabrowner-elf/lib/m68000/libc.a(printf_fp.o) (___ltdf2)
/Users/davidebucci/Desktop/Synchronized/Vintage/Computing/Atari/ST/brown//lib/gcc/m68k-atariextrabrowner-elf/10.2.0/m68000/libgcc.a(fpgnulib.o)
                              /Users/davidebucci/Desktop/Synchronized/Vintage/Computing/Atari/ST/brown/lib/gcc/m68k-atariextrabrowner-elf/10.2.0/../../../../m68k-atariextrabrowner-elf/lib/m68000/libc.a(localtime.o) (___floatsidf)
/Users/davidebucci/Desktop/Synchronized/Vintage/Computing/Atari/ST/brown//lib/gcc/m68k-atariextrabrowner-elf/10.2.0/m68000/libgcc.a(xfgnulib.o)
                              /Users/davidebucci/Desktop/Synchronized/Vintage/Computing/Atari/ST/brown/lib/gcc/m68k-atariextrabrowner-elf/10.2.0/../../../../m68k-atariextrabrowner-elf/lib/m68000/libc.a(printf_fp.o) (___ltxf2)
/Users/davidebucci/Desktop/Synchronized/Vintage/Computing/Atari/ST/brown/lib/gcc/m68k-atariextrabrowner-elf/10.2.0/../../../../m68k-atariextrabrowner-elf/lib/m68000/libc.a(fputs.o)
                              /var/folders/sk/pxzc9l1n12xfhw7mpgdgdkdc0000gn/T//tqf40.elf.kOuEog.ltrans0.ltrans.o (_fputs)

Memory Configuration

Name             Origin             Length             Attributes
*default*        0x0000000000000000 0xffffffffffffffff

Linker script and memory map

LOAD /Users/davidebucci/Desktop/Synchronized/Vintage/Computing/Atari/ST/brown/lib/gcc/m68k-atariextrabrowner-elf/10.2.0/m68000/crtbegin.o
LOAD /Users/davidebucci/Desktop/Synchronized/Vintage/Computing/Atari/ST/brown//../bigbrownbuild-git/mintlib-bigbrownbuild-10.2.0/startup/crt0.o
LOAD queens_no_UTF8.o
LOAD /var/folders/sk/pxzc9l1n12xfhw7mpgdgdkdc0000gn/T//tqf40.elf.kOuEog.ltrans0.ltrans.o
LOAD inout40.o
LOAD loadsave.o
LOAD cover_pics/queen.o
LOAD /Users/davidebucci/Desktop/Synchronized/Vintage/Computing/Atari/ST/brown//lib/gcc/m68k-atariextrabrowner-elf/10.2.0/m68000/libgcc.a
LOAD /Users/davidebucci/Desktop/Synchronized/Vintage/Computing/Atari/ST/brown/lib/gcc/m68k-atariextrabrowner-elf/10.2.0/../../../../m68k-atariextrabrowner-elf/lib/m68000/libc.a
LOAD /Users/davidebucci/Desktop/Synchronized/Vintage/Computing/Atari/ST/brown//lib/gcc/m68k-atariextrabrowner-elf/10.2.0/m68000/libgcc.a
LOAD /Users/davidebucci/Desktop/Synchronized/Vintage/Computing/Atari/ST/brown/lib/gcc/m68k-atariextrabrowner-elf/10.2.0/m68000/crtend.o
Address of section .text set to 0x0
                [!provide]                        PROVIDE (__executable_start = SEGMENT_START ("text-segment", 0x80000000))
                0x0000000080000094                . = (SEGMENT_START ("text-segment", 0x80000000) + SIZEOF_HEADERS)

.interp
 *(.interp)

.note.gnu.build-id
 *(.note.gnu.build-id)

.hash
 *(.hash)

.gnu.hash
 *(.gnu.hash)

.dynsym
 *(.dynsym)

.dynstr
 *(.dynstr)

.gnu.version
 *(.gnu.version)

.gnu.version_d
 *(.gnu.version_d)

.gnu.version_r
 *(.gnu.version_r)

.rela.dyn       0x0000000080000094        0x0
 *(.rela.init)
 *(.rela.text .rela.text.* .rela.gnu.linkonce.t.*)
 *(.rela.fini)
 *(.rela.rodata .rela.rodata.* .rela.gnu.linkonce.r.*)
 *(.rela.data .rela.data.* .rela.gnu.linkonce.d.*)
 *(.rela.tdata .rela.tdata.* .rela.gnu.linkonce.td.*)
 *(.rela.tbss .rela.tbss.* .rela.gnu.linkonce.tb.*)
 *(.rela.ctors)
 *(.rela.dtors)
 *(.rela.got)
 *(.rela.bss .rela.bss.* .rela.gnu.linkonce.b.*)
                [!provide]                        PROVIDE (__rela_iplt_start = .)
 *(.rela.iplt)
                [!provide]                        PROVIDE (__rela_iplt_end = .)

.rela.plt
 *(.rela.plt)

.init           0x0000000080000094        0xc
 *(SORT_NONE(.init))
 .init          0x0000000080000094        0x6 /Users/davidebucci/Desktop/Synchronized/Vintage/Computing/Atari/ST/brown/lib/gcc/m68k-atariextrabrowner-elf/10.2.0/m68000/crtbegin.o
 .init          0x000000008000009a        0x6 /Users/davidebucci/Desktop/Synchronized/Vintage/Computing/Atari/ST/brown/lib/gcc/m68k-atariextrabrowner-elf/10.2.0/m68000/crtend.o

.plt
 *(.plt)

.iplt
 *(.iplt)

.text           0x0000000000000000    0x3dcb8
 *(.text.unlikely .text.*_unlikely .text.unlikely.*)
 .text.unlikely
                0x0000000000000000       0x14 /Users/davidebucci/Desktop/Synchronized/Vintage/Computing/Atari/ST/brown/lib/gcc/m68k-atariextrabrowner-elf/10.2.0/../../../../m68k-atariextrabrowner-elf/lib/m68000/libc.a(abort.o)
                0x0000000000000000                _abort
 *(.text.exit .text.exit.*)
 *(.text.startup .text.startup.*)
 .text.startup.main
                0x0000000000000014       0x3e /var/folders/sk/pxzc9l1n12xfhw7mpgdgdkdc0000gn/T//tqf40.elf.kOuEog.ltrans0.ltrans.o
                0x0000000000000014                _main
 *(.text.hot .text.hot.*)
 *(SORT_BY_NAME(.text.sorted.*))
 *(.text .stub .text.* .gnu.linkonce.t.*)
 *fill*         0x0000000000000052        0x2 4e714e71
 .text          0x0000000000000054       0xf0 /Users/davidebucci/Desktop/Synchronized/Vintage/Computing/Atari/ST/brown/lib/gcc/m68k-atariextrabrowner-elf/10.2.0/m68000/crtbegin.o
 .text          0x0000000000000144       0x70 /Users/davidebucci/Desktop/Synchronized/Vintage/Computing/Atari/ST/brown//../bigbrownbuild-git/mintlib-bigbrownbuild-10.2.0/startup/crt0.o
                0x0000000000000144                __start
                0x00000000000001b2                __monstartup
                0x00000000000001b2                __moncontrol
                0x00000000000001b2                ___mcleanup
 .text          0x00000000000001b4        0x0 /var/folders/sk/pxzc9l1n12xfhw7mpgdgdkdc0000gn/T//tqf40.elf.kOuEog.ltrans0.ltrans.o
 .text.restart  0x00000000000001b4       0x92 /var/folders/sk/pxzc9l1n12xfhw7mpgdgdkdc0000gn/T//tqf40.elf.kOuEog.ltrans0.ltrans.o
 .text.object_is_available
                0x0000000000000246       0x76 /var/folders/sk/pxzc9l1n12xfhw7mpgdgdkdc0000gn/T//tqf40.elf.kOuEog.ltrans0.ltrans.o
 .text.cvna     0x00000000000002bc       0x7c /var/folders/sk/pxzc9l1n12xfhw7mpgdgdkdc0000gn/T//tqf40.elf.kOuEog.ltrans0.ltrans.o
 .text.check_verb70_actor_available
                0x0000000000000338       0x98 /var/folders/sk/pxzc9l1n12xfhw7mpgdgdkdc0000gn/T//tqf40.elf.kOuEog.ltrans0.ltrans.o
 .text.check_verb75_actor_available
                0x00000000000003d0       0x98 /var/folders/sk/pxzc9l1n12xfhw7mpgdgdkdc0000gn/T//tqf40.elf.kOuEog.ltrans0.ltrans.o
 .text.writesameln
                0x0000000000000468      0x1f6 /var/folders/sk/pxzc9l1n12xfhw7mpgdgdkdc0000gn/T//tqf40.elf.kOuEog.ltrans0.ltrans.o
 .text.show_messagenlf
                0x000000000000065e      0x18c /var/folders/sk/pxzc9l1n12xfhw7mpgdgdkdc0000gn/T//tqf40.elf.kOuEog.ltrans0.ltrans.o
 .text.writesameln.constprop.0
                0x00000000000007ea      0x216 /var/folders/sk/pxzc9l1n12xfhw7mpgdgdkdc0000gn/T//tqf40.elf.kOuEog.ltrans0.ltrans.o
 .text.get      0x0000000000000a00       0x90 /var/folders/sk/pxzc9l1n12xfhw7mpgdgdkdc0000gn/T//tqf40.elf.kOuEog.ltrans0.ltrans.o
 .text.drop     0x0000000000000a90       0x68 /var/folders/sk/pxzc9l1n12xfhw7mpgdgdkdc0000gn/T//tqf40.elf.kOuEog.ltrans0.ltrans.o
 .text.hi_cond  0x0000000000000af8      0x4ce /var/folders/sk/pxzc9l1n12xfhw7mpgdgdkdc0000gn/T//tqf40.elf.kOuEog.ltrans0.ltrans.o
 .text.writesameln.constprop.1
                0x0000000000000fc6      0x216 /var/folders/sk/pxzc9l1n12xfhw7mpgdgdkdc0000gn/T//tqf40.elf.kOuEog.ltrans0.ltrans.o
 .text.wri      0x00000000000011dc       0xf8 /var/folders/sk/pxzc9l1n12xfhw7mpgdgdkdc0000gn/T//tqf40.elf.kOuEog.ltrans0.ltrans.o
 .text.loadgame.constprop.0
                0x00000000000012d4      0x59c /var/folders/sk/pxzc9l1n12xfhw7mpgdgdkdc0000gn/T//tqf40.elf.kOuEog.ltrans0.ltrans.o
 .text.game_cycle
                0x0000000000001870     0x7708 /var/folders/sk/pxzc9l1n12xfhw7mpgdgdkdc0000gn/T//tqf40.elf.kOuEog.ltrans0.ltrans.o
 .text          0x0000000000008f78    0x1dbcc cover_pics/queen.o
                0x0000000000008f7e                _pic_display
 .text          0x0000000000026b44       0x14 /Users/davidebucci/Desktop/Synchronized/Vintage/Computing/Atari/ST/brown/lib/gcc/m68k-atariextrabrowner-elf/10.2.0/../../../../m68k-atariextrabrowner-elf/lib/m68000/libc.a(checkcpu.o)
                0x0000000000026b44                __checkcpu
 .text          0x0000000000026b58      0x732 /Users/davidebucci/Desktop/Synchronized/Vintage/Computing/Atari/ST/brown/lib/gcc/m68k-atariextrabrowner-elf/10.2.0/../../../../m68k-atariextrabrowner-elf/lib/m68000/libc.a(crtinit.o)
                0x0000000000026b58                __acc_main
                0x0000000000026c66                __crtinit
 *fill*         0x000000000002728a        0x2 4e714e71
 .text          0x000000000002728c       0x6e /Users/davidebucci/Desktop/Synchronized/Vintage/Computing/Atari/ST/brown/lib/gcc/m68k-atariextrabrowner-elf/10.2.0/../../../../m68k-atariextrabrowner-elf/lib/m68000/libc.a(getenv.o)
                0x000000000002728c                _getenv
 *fill*         0x00000000000272fa        0x2 4e714e71
 .text          0x00000000000272fc        0x0 /Users/davidebucci/Desktop/Synchronized/Vintage/Computing/Atari/ST/brown/lib/gcc/m68k-atariextrabrowner-elf/10.2.0/../../../../m68k-atariextrabrowner-elf/lib/m68000/libc.a(globals.o)
 .text          0x00000000000272fc        0x0 /Users/davidebucci/Desktop/Synchronized/Vintage/Computing/Atari/ST/brown/lib/gcc/m68k-atariextrabrowner-elf/10.2.0/../../../../m68k-atariextrabrowner-elf/lib/m68000/libc.a(heapbase.o)
 .text          0x00000000000272fc        0x0 /Users/davidebucci/Desktop/Synchronized/Vintage/Computing/Atari/ST/brown/lib/gcc/m68k-atariextrabrowner-elf/10.2.0/../../../../m68k-atariextrabrowner-elf/lib/m68000/libc.a(ident.o)
 .text          0x00000000000272fc        0x0 /Users/davidebucci/Desktop/Synchronized/Vintage/Computing/Atari/ST/brown/lib/gcc/m68k-atariextrabrowner-elf/10.2.0/../../../../m68k-atariextrabrowner-elf/lib/m68000/libc.a(ident_dummy_gem.o)
 .text          0x00000000000272fc        0x0 /Users/davidebucci/Desktop/Synchronized/Vintage/Computing/Atari/ST/brown/lib/gcc/m68k-atariextrabrowner-elf/10.2.0/../../../../m68k-atariextrabrowner-elf/lib/m68000/libc.a(inistack.o)
 .text          0x00000000000272fc      0x6e2 /Users/davidebucci/Desktop/Synchronized/Vintage/Computing/Atari/ST/brown/lib/gcc/m68k-atariextrabrowner-elf/10.2.0/../../../../m68k-atariextrabrowner-elf/lib/m68000/libc.a(main.o)
                0x000000000002739a                __main
                0x000000000002739a                ___libc_main
 *fill*         0x00000000000279de        0x2 4e714e71
 .text          0x00000000000279e0      0x4be /Users/davidebucci/Desktop/Synchronized/Vintage/Computing/Atari/ST/brown/lib/gcc/m68k-atariextrabrowner-elf/10.2.0/../../../../m68k-atariextrabrowner-elf/lib/m68000/libc.a(malloc.o)
                0x00000000000279e0                ___mallocChunkSize
                0x00000000000279e0                __mallocChunkSize
                0x00000000000279f2                __malloczero
                0x00000000000279f2                ___malloczero
                0x00000000000279fc                _malloc
                0x00000000000279fc                ___malloc
                0x0000000000027bdc                _free
                0x0000000000027bdc                ___free
 *fill*         0x0000000000027e9e        0x2 4e714e71
 .text          0x0000000000027ea0      0x156 /Users/davidebucci/Desktop/Synchronized/Vintage/Computing/Atari/ST/brown/lib/gcc/m68k-atariextrabrowner-elf/10.2.0/../../../../m68k-atariextrabrowner-elf/lib/m68000/libc.a(realloc.o)
                0x0000000000027ea0                ___realloc
                0x0000000000027ea0                _realloc
 *fill*         0x0000000000027ff6        0x2 4e714e71
 .text          0x0000000000027ff8        0xc /Users/davidebucci/Desktop/Synchronized/Vintage/Computing/Atari/ST/brown/lib/gcc/m68k-atariextrabrowner-elf/10.2.0/../../../../m68k-atariextrabrowner-elf/lib/m68000/libc.a(setstack.o)
                0x0000000000027ff8                __setstack
 .text          0x0000000000028004        0x0 /Users/davidebucci/Desktop/Synchronized/Vintage/Computing/Atari/ST/brown/lib/gcc/m68k-atariextrabrowner-elf/10.2.0/../../../../m68k-atariextrabrowner-elf/lib/m68000/libc.a(stksiz.o)
 .text          0x0000000000028004      0x4ca /Users/davidebucci/Desktop/Synchronized/Vintage/Computing/Atari/ST/brown/lib/gcc/m68k-atariextrabrowner-elf/10.2.0/../../../../m68k-atariextrabrowner-elf/lib/m68000/libc.a(unx2dos.o)
                0x0000000000028004                __unx2dos
                0x0000000000028226                __dos2unx
                0x0000000000028360                _unx2dos
                0x0000000000028376                _dos2unx
                0x000000000002838c                __path_unx2dos
                0x000000000002842a                __path_dos2unx
 *fill*         0x00000000000284ce        0x2 4e714e71
 .text          0x00000000000284d0       0x24 /Users/davidebucci/Desktop/Synchronized/Vintage/Computing/Atari/ST/brown/lib/gcc/m68k-atariextrabrowner-elf/10.2.0/../../../../m68k-atariextrabrowner-elf/lib/m68000/libc.a(initsig.o)
                0x00000000000284d0                __init_signal
 .text          0x00000000000284f4       0xcc /Users/davidebucci/Desktop/Synchronized/Vintage/Computing/Atari/ST/brown/lib/gcc/m68k-atariextrabrowner-elf/10.2.0/../../../../m68k-atariextrabrowner-elf/lib/m68000/libc.a(binmode.o)
                0x00000000000284f4                __binmode
                0x00000000000284f4                ___binmode
                0x000000000002850e                ___set_binmode
 .text          0x00000000000285c0        0x0 /Users/davidebucci/Desktop/Synchronized/Vintage/Computing/Atari/ST/brown/lib/gcc/m68k-atariextrabrowner-elf/10.2.0/../../../../m68k-atariextrabrowner-elf/lib/m68000/libc.a(defmode.o)
 .text          0x00000000000285c0       0xea /Users/davidebucci/Desktop/Synchronized/Vintage/Computing/Atari/ST/brown/lib/gcc/m68k-atariextrabrowner-elf/10.2.0/../../../../m68k-atariextrabrowner-elf/lib/m68000/libc.a(fclose.o)
                0x00000000000285c0                _fclose
 *fill*         0x00000000000286aa        0x2 4e714e71
 .text          0x00000000000286ac      0x208 /Users/davidebucci/Desktop/Synchronized/Vintage/Computing/Atari/ST/brown/lib/gcc/m68k-atariextrabrowner-elf/10.2.0/../../../../m68k-atariextrabrowner-elf/lib/m68000/libc.a(fgets.o)
                0x00000000000286ac                _fgets_unlocked
                0x00000000000286ac                _fgets
 .text          0x00000000000288b4       0x64 /Users/davidebucci/Desktop/Synchronized/Vintage/Computing/Atari/ST/brown/lib/gcc/m68k-atariextrabrowner-elf/10.2.0/../../../../m68k-atariextrabrowner-elf/lib/m68000/libc.a(fileno.o)
                0x00000000000288b4                _fileno
                0x00000000000288b4                _fileno_unlocked
 .text          0x0000000000028918      0x156 /Users/davidebucci/Desktop/Synchronized/Vintage/Computing/Atari/ST/brown/lib/gcc/m68k-atariextrabrowner-elf/10.2.0/../../../../m68k-atariextrabrowner-elf/lib/m68000/libc.a(fopen.o)
                0x00000000000289b8                ___getmode
                0x00000000000289ce                _fopen
 *fill*         0x0000000000028a6e        0x2 4e714e71
 .text          0x0000000000028a70       0x2c /Users/davidebucci/Desktop/Synchronized/Vintage/Computing/Atari/ST/brown/lib/gcc/m68k-atariextrabrowner-elf/10.2.0/../../../../m68k-atariextrabrowner-elf/lib/m68000/libc.a(getchar.o)
                0x0000000000028a70                _getchar_unlocked
                0x0000000000028a70                _getchar
 .text          0x0000000000028a9c      0xbb4 /Users/davidebucci/Desktop/Synchronized/Vintage/Computing/Atari/ST/brown/lib/gcc/m68k-atariextrabrowner-elf/10.2.0/../../../../m68k-atariextrabrowner-elf/lib/m68000/libc.a(internals.o)
                0x0000000000028bec                ___stdio_check_funcs
                0x0000000000028c88                ___stdio_check_offset
                0x00000000000292da                ___flshfp
                0x000000000002946c                ___fillbf
                0x0000000000029628                ___invalidate
 .text          0x0000000000029650       0x76 /Users/davidebucci/Desktop/Synchronized/Vintage/Computing/Atari/ST/brown/lib/gcc/m68k-atariextrabrowner-elf/10.2.0/../../../../m68k-atariextrabrowner-elf/lib/m68000/libc.a(newstream.o)
                0x0000000000029650                ___newstream
 *fill*         0x00000000000296c6        0x2 4e714e71
 .text          0x00000000000296c8      0x118 /Users/davidebucci/Desktop/Synchronized/Vintage/Computing/Atari/ST/brown/lib/gcc/m68k-atariextrabrowner-elf/10.2.0/../../../../m68k-atariextrabrowner-elf/lib/m68000/libc.a(setvbuf.o)
                0x00000000000296c8                _setvbuf
 .text          0x00000000000297e0       0x84 /Users/davidebucci/Desktop/Synchronized/Vintage/Computing/Atari/ST/brown/lib/gcc/m68k-atariextrabrowner-elf/10.2.0/../../../../m68k-atariextrabrowner-elf/lib/m68000/libc.a(stdio_init.o)
                0x00000000000297e0                ___stdio_init_stream
 .text          0x0000000000029864      0x398 /Users/davidebucci/Desktop/Synchronized/Vintage/Computing/Atari/ST/brown/lib/gcc/m68k-atariextrabrowner-elf/10.2.0/../../../../m68k-atariextrabrowner-elf/lib/m68000/libc.a(sysd-stdio.o)
                0x0000000000029864                ___stdio_close
                0x000000000002986a                ___stdio_read
                0x0000000000029870                ___stdio_text_read
                0x0000000000029978                ___stdio_write
                0x00000000000299c6                ___stdio_text_write
                0x0000000000029ab4                ___stdio_seek
                0x0000000000029ae0                ___stdio_fileno
                0x0000000000029ae6                ___stdio_open
                0x0000000000029b68                ___stdio_reopen
 .text          0x0000000000029bfc       0x16 /Users/davidebucci/Desktop/Synchronized/Vintage/Computing/Atari/ST/brown/lib/gcc/m68k-atariextrabrowner-elf/10.2.0/../../../../m68k-atariextrabrowner-elf/lib/m68000/libc.a(atoi.o)
                0x0000000000029bfc                _atoi
 *fill*         0x0000000000029c12        0x2 4e714e71
 .text          0x0000000000029c14       0x38 /Users/davidebucci/Desktop/Synchronized/Vintage/Computing/Atari/ST/brown/lib/gcc/m68k-atariextrabrowner-elf/10.2.0/../../../../m68k-atariextrabrowner-elf/lib/m68000/libc.a(exit.o)
                0x0000000000029c14                ___exit
                0x0000000000029c14                _exit
 .text          0x0000000000029c4c      0x330 /Users/davidebucci/Desktop/Synchronized/Vintage/Computing/Atari/ST/brown/lib/gcc/m68k-atariextrabrowner-elf/10.2.0/../../../../m68k-atariextrabrowner-elf/lib/m68000/libc.a(strtol.o)
                0x0000000000029f30                ___strtol_internal
                0x0000000000029f56                _strtol
 .text          0x0000000000029f7c      0x1c4 /Users/davidebucci/Desktop/Synchronized/Vintage/Computing/Atari/ST/brown/lib/gcc/m68k-atariextrabrowner-elf/10.2.0/../../../../m68k-atariextrabrowner-elf/lib/m68000/libc.a(bcopy.o)
                0x0000000000029f7c                _memcpy
                0x0000000000029f7c                _memmove
                0x0000000000029f86                ___bcopy
                0x0000000000029f86                _bcopy
                0x0000000000029f86                __bcopy
 .text          0x000000000002a140       0xa8 /Users/davidebucci/Desktop/Synchronized/Vintage/Computing/Atari/ST/brown/lib/gcc/m68k-atariextrabrowner-elf/10.2.0/../../../../m68k-atariextrabrowner-elf/lib/m68000/libc.a(bzero.o)
                0x000000000002a140                _bzero
                0x000000000002a140                __bzero
                0x000000000002a140                ___bzero
 .text          0x000000000002a1e8       0x32 /Users/davidebucci/Desktop/Synchronized/Vintage/Computing/Atari/ST/brown/lib/gcc/m68k-atariextrabrowner-elf/10.2.0/../../../../m68k-atariextrabrowner-elf/lib/m68000/libc.a(memccpy.o)
                0x000000000002a1e8                _memccpy
                0x000000000002a1e8                ___memccpy
 *fill*         0x000000000002a21a        0x2 4e714e71
 .text          0x000000000002a21c       0xaa /Users/davidebucci/Desktop/Synchronized/Vintage/Computing/Atari/ST/brown/lib/gcc/m68k-atariextrabrowner-elf/10.2.0/../../../../m68k-atariextrabrowner-elf/lib/m68000/libc.a(memset.o)
                0x000000000002a21c                _memset
 *fill*         0x000000000002a2c6        0x2 4e714e71
 .text          0x000000000002a2c8       0x36 /Users/davidebucci/Desktop/Synchronized/Vintage/Computing/Atari/ST/brown/lib/gcc/m68k-atariextrabrowner-elf/10.2.0/../../../../m68k-atariextrabrowner-elf/lib/m68000/libc.a(strcmp.o)
                0x000000000002a2c8                _strcmp
 *fill*         0x000000000002a2fe        0x2 4e714e71
 .text          0x000000000002a300       0x18 /Users/davidebucci/Desktop/Synchronized/Vintage/Computing/Atari/ST/brown/lib/gcc/m68k-atariextrabrowner-elf/10.2.0/../../../../m68k-atariextrabrowner-elf/lib/m68000/libc.a(strlen.o)
                0x000000000002a300                _strlen
 .text          0x000000000002a318       0x40 /Users/davidebucci/Desktop/Synchronized/Vintage/Computing/Atari/ST/brown/lib/gcc/m68k-atariextrabrowner-elf/10.2.0/../../../../m68k-atariextrabrowner-elf/lib/m68000/libc.a(strncat.o)
                0x000000000002a318                _strncat
 .text          0x000000000002a358       0x5a /Users/davidebucci/Desktop/Synchronized/Vintage/Computing/Atari/ST/brown/lib/gcc/m68k-atariextrabrowner-elf/10.2.0/../../../../m68k-atariextrabrowner-elf/lib/m68000/libc.a(strncmp.o)
                0x000000000002a358                _strncmp
 *fill*         0x000000000002a3b2        0x2 4e714e71
 .text          0x000000000002a3b4       0x40 /Users/davidebucci/Desktop/Synchronized/Vintage/Computing/Atari/ST/brown/lib/gcc/m68k-atariextrabrowner-elf/10.2.0/../../../../m68k-atariextrabrowner-elf/lib/m68000/libc.a(strncpy.o)
                0x000000000002a3b4                _strncpy
 .text          0x000000000002a3f4       0x4c /Users/davidebucci/Desktop/Synchronized/Vintage/Computing/Atari/ST/brown/lib/gcc/m68k-atariextrabrowner-elf/10.2.0/../../../../m68k-atariextrabrowner-elf/lib/m68000/libc.a(strrchr.o)
                0x000000000002a3f4                _rindex
                0x000000000002a3f4                _strrchr
 .text          0x000000000002a440       0x58 /Users/davidebucci/Desktop/Synchronized/Vintage/Computing/Atari/ST/brown/lib/gcc/m68k-atariextrabrowner-elf/10.2.0/../../../../m68k-atariextrabrowner-elf/lib/m68000/libc.a(close.o)
                0x000000000002a440                ___close
                0x000000000002a440                _close
 .text          0x000000000002a498       0xd4 /Users/davidebucci/Desktop/Synchronized/Vintage/Computing/Atari/ST/brown/lib/gcc/m68k-atariextrabrowner-elf/10.2.0/../../../../m68k-atariextrabrowner-elf/lib/m68000/libc.a(dup2.o)
                0x000000000002a498                _dup2
                0x000000000002a498                ___dup2
 .text          0x000000000002a56c       0x18 /Users/davidebucci/Desktop/Synchronized/Vintage/Computing/Atari/ST/brown/lib/gcc/m68k-atariextrabrowner-elf/10.2.0/../../../../m68k-atariextrabrowner-elf/lib/m68000/libc.a(fstat.o)
                0x000000000002a56c                _fstat
                0x000000000002a56c                ___fstat
 .text          0x000000000002a584       0x4c /Users/davidebucci/Desktop/Synchronized/Vintage/Computing/Atari/ST/brown/lib/gcc/m68k-atariextrabrowner-elf/10.2.0/../../../../m68k-atariextrabrowner-elf/lib/m68000/libc.a(getpagesize.o)
                0x000000000002a584                ___getpagesize
                0x000000000002a584                _getpagesize
 .text          0x000000000002a5d0      0x154 /Users/davidebucci/Desktop/Synchronized/Vintage/Computing/Atari/ST/brown/lib/gcc/m68k-atariextrabrowner-elf/10.2.0/../../../../m68k-atariextrabrowner-elf/lib/m68000/libc.a(lseek.o)
                0x000000000002a5d0                ___lseek
                0x000000000002a5d0                _lseek
 .text          0x000000000002a724      0x94e /Users/davidebucci/Desktop/Synchronized/Vintage/Computing/Atari/ST/brown/lib/gcc/m68k-atariextrabrowner-elf/10.2.0/../../../../m68k-atariextrabrowner-elf/lib/m68000/libc.a(open.o)
                0x000000000002a7ca                ___open_v
                0x000000000002b056                _open
                0x000000000002b056                ___open
 *fill*         0x000000000002b072        0x2 4e714e71
 .text          0x000000000002b074      0x430 /Users/davidebucci/Desktop/Synchronized/Vintage/Computing/Atari/ST/brown/lib/gcc/m68k-atariextrabrowner-elf/10.2.0/../../../../m68k-atariextrabrowner-elf/lib/m68000/libc.a(read.o)
                0x000000000002b074                _read
                0x000000000002b074                ___read
 .text          0x000000000002b4a4       0x82 /Users/davidebucci/Desktop/Synchronized/Vintage/Computing/Atari/ST/brown/lib/gcc/m68k-atariextrabrowner-elf/10.2.0/../../../../m68k-atariextrabrowner-elf/lib/m68000/libc.a(sbrk.o)
                0x000000000002b4a4                _sbrk
                0x000000000002b4a4                ___sbrk
 *fill*         0x000000000002b526        0x2 4e714e71
 .text          0x000000000002b528       0x4c /Users/davidebucci/Desktop/Synchronized/Vintage/Computing/Atari/ST/brown/lib/gcc/m68k-atariextrabrowner-elf/10.2.0/../../../../m68k-atariextrabrowner-elf/lib/m68000/libc.a(sysctl.o)
                0x000000000002b528                ___sysctl
                0x000000000002b528                _sysctl
 .text          0x000000000002b574      0x178 /Users/davidebucci/Desktop/Synchronized/Vintage/Computing/Atari/ST/brown/lib/gcc/m68k-atariextrabrowner-elf/10.2.0/../../../../m68k-atariextrabrowner-elf/lib/m68000/libc.a(write.o)
                0x000000000002b574                _write
                0x000000000002b574                ___write
 .text          0x000000000002b6ec        0x0 /Users/davidebucci/Desktop/Synchronized/Vintage/Computing/Atari/ST/brown/lib/gcc/m68k-atariextrabrowner-elf/10.2.0/../../../../m68k-atariextrabrowner-elf/lib/m68000/libc.a(ident_sock.o)
 .text          0x000000000002b6ec      0x17c /Users/davidebucci/Desktop/Synchronized/Vintage/Computing/Atari/ST/brown/lib/gcc/m68k-atariextrabrowner-elf/10.2.0/../../../../m68k-atariextrabrowner-elf/lib/m68000/libc.a(assert.o)
                0x000000000002b6ec                ___assert_fail
 .text          0x000000000002b868       0x8e /Users/davidebucci/Desktop/Synchronized/Vintage/Computing/Atari/ST/brown/lib/gcc/m68k-atariextrabrowner-elf/10.2.0/../../../../m68k-atariextrabrowner-elf/lib/m68000/libc.a(console.o)
                0x000000000002b868                __console_read_byte
                0x000000000002b8c8                __console_write_byte
 *fill*         0x000000000002b8f6        0x2 4e714e71
 .text          0x000000000002b8f8      0x1b4 /Users/davidebucci/Desktop/Synchronized/Vintage/Computing/Atari/ST/brown/lib/gcc/m68k-atariextrabrowner-elf/10.2.0/../../../../m68k-atariextrabrowner-elf/lib/m68000/libc.a(ctype.o)
                0x000000000002b8f8                _isalnum
                0x000000000002b918                _isalpha
                0x000000000002b938                _isascii
                0x000000000002b948                _toascii
                0x000000000002b950                _iscntrl
                0x000000000002b984                _isdigit
                0x000000000002b9a4                _isgraph
                0x000000000002b9c6                _islower
                0x000000000002b9e8                _isprint
                0x000000000002ba0a                _ispunct
                0x000000000002ba2a                _isspace
                0x000000000002ba4a                _isupper
                0x000000000002ba6a                _isxdigit
                0x000000000002ba8a                ___isblank
                0x000000000002ba8a                _isblank
 .text          0x000000000002baac      0x448 /Users/davidebucci/Desktop/Synchronized/Vintage/Computing/Atari/ST/brown/lib/gcc/m68k-atariextrabrowner-elf/10.2.0/../../../../m68k-atariextrabrowner-elf/lib/m68000/libc.a(do_fstat.o)
                0x000000000002baac                ___sys_fstat
                0x000000000002bc10                ___do_fstat
 .text          0x000000000002bef4      0x134 /Users/davidebucci/Desktop/Synchronized/Vintage/Computing/Atari/ST/brown/lib/gcc/m68k-atariextrabrowner-elf/10.2.0/../../../../m68k-atariextrabrowner-elf/lib/m68000/libc.a(enoent.o)
                0x000000000002bef4                __enoent
 .text          0x000000000002c028       0x7e /Users/davidebucci/Desktop/Synchronized/Vintage/Computing/Atari/ST/brown/lib/gcc/m68k-atariextrabrowner-elf/10.2.0/../../../../m68k-atariextrabrowner-elf/lib/m68000/libc.a(getcookie.o)
                0x000000000002c028                _Getcookie
 *fill*         0x000000000002c0a6        0x2 4e714e71
 .text          0x000000000002c0a8       0x60 /Users/davidebucci/Desktop/Synchronized/Vintage/Computing/Atari/ST/brown/lib/gcc/m68k-atariextrabrowner-elf/10.2.0/../../../../m68k-atariextrabrowner-elf/lib/m68000/libc.a(getsysvar.o)
                0x000000000002c0a8                _get_sysvar
 .text          0x000000000002c108        0x0 /Users/davidebucci/Desktop/Synchronized/Vintage/Computing/Atari/ST/brown/lib/gcc/m68k-atariextrabrowner-elf/10.2.0/../../../../m68k-atariextrabrowner-elf/lib/m68000/libc.a(inode.o)
 .text          0x000000000002c108      0x112 /Users/davidebucci/Desktop/Synchronized/Vintage/Computing/Atari/ST/brown/lib/gcc/m68k-atariextrabrowner-elf/10.2.0/../../../../m68k-atariextrabrowner-elf/lib/m68000/libc.a(isatty.o)
                0x000000000002c108                ___isatty
                0x000000000002c108                _isatty
 *fill*         0x000000000002c21a        0x2 4e714e71
 .text          0x000000000002c21c       0xb2 /Users/davidebucci/Desktop/Synchronized/Vintage/Computing/Atari/ST/brown/lib/gcc/m68k-atariextrabrowner-elf/10.2.0/../../../../m68k-atariextrabrowner-elf/lib/m68000/libc.a(isctty.o)
                0x000000000002c21c                __isctty
 *fill*         0x000000000002c2ce        0x2 4e714e71
 .text          0x000000000002c2d0       0x1a /Users/davidebucci/Desktop/Synchronized/Vintage/Computing/Atari/ST/brown/lib/gcc/m68k-atariextrabrowner-elf/10.2.0/../../../../m68k-atariextrabrowner-elf/lib/m68000/libc.a(libc_exit.o)
                0x000000000002c2d0                __exit
                0x000000000002c2d0                ___libc_exit
 *fill*         0x000000000002c2ea        0x2 4e714e71
 .text          0x000000000002c2ec      0x57e /Users/davidebucci/Desktop/Synchronized/Vintage/Computing/Atari/ST/brown/lib/gcc/m68k-atariextrabrowner-elf/10.2.0/../../../../m68k-atariextrabrowner-elf/lib/m68000/libc.a(quickstat.o)
                0x000000000002c2ec                ___quickstat
 *fill*         0x000000000002c86a        0x2 4e714e71
 .text          0x000000000002c86c       0x4c /Users/davidebucci/Desktop/Synchronized/Vintage/Computing/Atari/ST/brown/lib/gcc/m68k-atariextrabrowner-elf/10.2.0/../../../../m68k-atariextrabrowner-elf/lib/m68000/libc.a(toxxx.o)
                0x000000000002c86c                __toupper
                0x000000000002c86c                _toupper
                0x000000000002c892                __tolower
                0x000000000002c892                _tolower
 .text          0x000000000002c8b8       0x72 /Users/davidebucci/Desktop/Synchronized/Vintage/Computing/Atari/ST/brown/lib/gcc/m68k-atariextrabrowner-elf/10.2.0/../../../../m68k-atariextrabrowner-elf/lib/m68000/libc.a(unixtime.o)
                0x000000000002c8b8                ___unixtime
 *fill*         0x000000000002c92a        0x2 4e714e71
 .text          0x000000000002c92c       0x16 /Users/davidebucci/Desktop/Synchronized/Vintage/Computing/Atari/ST/brown/lib/gcc/m68k-atariextrabrowner-elf/10.2.0/../../../../m68k-atariextrabrowner-elf/lib/m68000/libc.a(raise.o)
                0x000000000002c92c                _gsignal
                0x000000000002c92c                _raise
 *fill*         0x000000000002c942        0x2 4e714e71
 .text          0x000000000002c944       0x5c /Users/davidebucci/Desktop/Synchronized/Vintage/Computing/Atari/ST/brown/lib/gcc/m68k-atariextrabrowner-elf/10.2.0/../../../../m68k-atariextrabrowner-elf/lib/m68000/libc.a(fcloseall.o)
                0x000000000002c944                _fcloseall
                0x000000000002c944                ___fcloseall
 .text          0x000000000002c9a0       0xce /Users/davidebucci/Desktop/Synchronized/Vintage/Computing/Atari/ST/brown/lib/gcc/m68k-atariextrabrowner-elf/10.2.0/../../../../m68k-atariextrabrowner-elf/lib/m68000/libc.a(fflush.o)
                0x000000000002c9a0                _fflush
                0x000000000002c9a0                _fflush_unlocked
 *fill*         0x000000000002ca6e        0x2 4e714e71
 .text          0x000000000002ca70        0x0 /Users/davidebucci/Desktop/Synchronized/Vintage/Computing/Atari/ST/brown/lib/gcc/m68k-atariextrabrowner-elf/10.2.0/../../../../m68k-atariextrabrowner-elf/lib/m68000/libc.a(itoa-digits.o)
 .text          0x000000000002ca70      0x318 /Users/davidebucci/Desktop/Synchronized/Vintage/Computing/Atari/ST/brown/lib/gcc/m68k-atariextrabrowner-elf/10.2.0/../../../../m68k-atariextrabrowner-elf/lib/m68000/libc.a(strtoul.o)
                0x000000000002cd3c                ___strtoul_internal
                0x000000000002cd62                _strtoul
 .text          0x000000000002cd88       0x1c /Users/davidebucci/Desktop/Synchronized/Vintage/Computing/Atari/ST/brown/lib/gcc/m68k-atariextrabrowner-elf/10.2.0/../../../../m68k-atariextrabrowner-elf/lib/m68000/libc.a(strchr.o)
                0x000000000002cd88                _strchr
                0x000000000002cd88                _index
                0x000000000002cd88                ___strchr
 .text          0x000000000002cda4     0x2c7c /Users/davidebucci/Desktop/Synchronized/Vintage/Computing/Atari/ST/brown/lib/gcc/m68k-atariextrabrowner-elf/10.2.0/../../../../m68k-atariextrabrowner-elf/lib/m68000/libc.a(localtime.o)
                0x000000000002f412                _tzsetwall
                0x000000000002f4bc                _tzset
                0x000000000002f62c                _localtime
                0x000000000002f646                _localtime_r
                0x000000000002f65a                _gmtime
                0x000000000002f6f2                _gmtime_r
                0x000000000002f786                _offtime
                0x000000000002f822                _ctime
                0x000000000002f84a                _ctime_r
                0x000000000002f870                _mktime
                0x000000000002f888                _timelocal
                0x000000000002f8b2                _timegm
                0x000000000002f8d2                _timeoff
                0x000000000002f8f4                _time2posix
                0x000000000002f932                _posix2time
 .text          0x000000000002fa20       0xf2 /Users/davidebucci/Desktop/Synchronized/Vintage/Computing/Atari/ST/brown/lib/gcc/m68k-atariextrabrowner-elf/10.2.0/../../../../m68k-atariextrabrowner-elf/lib/m68000/libc.a(access.o)
                0x000000000002fa20                _access
                0x000000000002fa20                ___access
 *fill*         0x000000000002fb12        0x2 4e714e71
 .text          0x000000000002fb14      0x142 /Users/davidebucci/Desktop/Synchronized/Vintage/Computing/Atari/ST/brown/lib/gcc/m68k-atariextrabrowner-elf/10.2.0/../../../../m68k-atariextrabrowner-elf/lib/m68000/libc.a(chmod.o)
                0x000000000002fb14                ___chmod
                0x000000000002fb14                _chmod
 *fill*         0x000000000002fc56        0x2 4e714e71
 .text          0x000000000002fc58       0x30 /Users/davidebucci/Desktop/Synchronized/Vintage/Computing/Atari/ST/brown/lib/gcc/m68k-atariextrabrowner-elf/10.2.0/../../../../m68k-atariextrabrowner-elf/lib/m68000/libc.a(getegid.o)
                0x000000000002fc58                _getegid
                0x000000000002fc58                ___getegid
 .text          0x000000000002fc88       0x30 /Users/davidebucci/Desktop/Synchronized/Vintage/Computing/Atari/ST/brown/lib/gcc/m68k-atariextrabrowner-elf/10.2.0/../../../../m68k-atariextrabrowner-elf/lib/m68000/libc.a(geteuid.o)
                0x000000000002fc88                ___geteuid
                0x000000000002fc88                _geteuid
 .text          0x000000000002fcb8       0x2c /Users/davidebucci/Desktop/Synchronized/Vintage/Computing/Atari/ST/brown/lib/gcc/m68k-atariextrabrowner-elf/10.2.0/../../../../m68k-atariextrabrowner-elf/lib/m68000/libc.a(getgid.o)
                0x000000000002fcb8                _getgid
                0x000000000002fcb8                ___getgid
 .text          0x000000000002fce4      0x134 /Users/davidebucci/Desktop/Synchronized/Vintage/Computing/Atari/ST/brown/lib/gcc/m68k-atariextrabrowner-elf/10.2.0/../../../../m68k-atariextrabrowner-elf/lib/m68000/libc.a(getgroups.o)
                0x000000000002fce4                ___getgroups
                0x000000000002fce4                _getgroups
 .text          0x000000000002fe18       0x2e /Users/davidebucci/Desktop/Synchronized/Vintage/Computing/Atari/ST/brown/lib/gcc/m68k-atariextrabrowner-elf/10.2.0/../../../../m68k-atariextrabrowner-elf/lib/m68000/libc.a(getpid.o)
                0x000000000002fe18                _getpid
                0x000000000002fe18                ___getpid
 *fill*         0x000000000002fe46        0x2 4e714e71
 .text          0x000000000002fe48       0x26 /Users/davidebucci/Desktop/Synchronized/Vintage/Computing/Atari/ST/brown/lib/gcc/m68k-atariextrabrowner-elf/10.2.0/../../../../m68k-atariextrabrowner-elf/lib/m68000/libc.a(getuid.o)
                0x000000000002fe48                _getuid
                0x000000000002fe48                ___getuid
 *fill*         0x000000000002fe6e        0x2 4e714e71
 .text          0x000000000002fe70      0x67a /Users/davidebucci/Desktop/Synchronized/Vintage/Computing/Atari/ST/brown/lib/gcc/m68k-atariextrabrowner-elf/10.2.0/../../../../m68k-atariextrabrowner-elf/lib/m68000/libc.a(ioctl.o)
                0x000000000002fe70                ___ioctl
                0x000000000002fe70                _ioctl
 *fill*         0x00000000000304ea        0x2 4e714e71
 .text          0x00000000000304ec      0x126 /Users/davidebucci/Desktop/Synchronized/Vintage/Computing/Atari/ST/brown/lib/gcc/m68k-atariextrabrowner-elf/10.2.0/../../../../m68k-atariextrabrowner-elf/lib/m68000/libc.a(kill.o)
                0x00000000000304ec                ___kill
                0x00000000000304ec                _kill
 *fill*         0x0000000000030612        0x2 4e714e71
 .text          0x0000000000030614       0x3a /Users/davidebucci/Desktop/Synchronized/Vintage/Computing/Atari/ST/brown/lib/gcc/m68k-atariextrabrowner-elf/10.2.0/../../../../m68k-atariextrabrowner-elf/lib/m68000/libc.a(time.o)
                0x0000000000030614                ___time
                0x0000000000030614                _time
 *fill*         0x000000000003064e        0x2 4e714e71
 .text          0x0000000000030650        0x0 /Users/davidebucci/Desktop/Synchronized/Vintage/Computing/Atari/ST/brown/lib/gcc/m68k-atariextrabrowner-elf/10.2.0/../../../../m68k-atariextrabrowner-elf/lib/m68000/libc.a(abort.o)
 .text          0x0000000000030650        0x0 /Users/davidebucci/Desktop/Synchronized/Vintage/Computing/Atari/ST/brown/lib/gcc/m68k-atariextrabrowner-elf/10.2.0/../../../../m68k-atariextrabrowner-elf/lib/m68000/libc.a(alglobal.o)
 .text          0x0000000000030650       0x3e /Users/davidebucci/Desktop/Synchronized/Vintage/Computing/Atari/ST/brown/lib/gcc/m68k-atariextrabrowner-elf/10.2.0/../../../../m68k-atariextrabrowner-elf/lib/m68000/libc.a(calloc.o)
                0x0000000000030650                _calloc
                0x0000000000030650                ___calloc
 *fill*         0x000000000003068e        0x2 4e714e71
 .text          0x0000000000030690      0x7d2 /Users/davidebucci/Desktop/Synchronized/Vintage/Computing/Atari/ST/brown/lib/gcc/m68k-atariextrabrowner-elf/10.2.0/../../../../m68k-atariextrabrowner-elf/lib/m68000/libc.a(do_stat.o)
                0x0000000000030690                ___sys_stat
                0x00000000000307dc                ___do_stat
 *fill*         0x0000000000030e62        0x2 4e714e71
 .text          0x0000000000030e64        0x0 /Users/davidebucci/Desktop/Synchronized/Vintage/Computing/Atari/ST/brown/lib/gcc/m68k-atariextrabrowner-elf/10.2.0/../../../../m68k-atariextrabrowner-elf/lib/m68000/libc.a(uidgid.o)
 .text          0x0000000000030e64       0x38 /Users/davidebucci/Desktop/Synchronized/Vintage/Computing/Atari/ST/brown/lib/gcc/m68k-atariextrabrowner-elf/10.2.0/../../../../m68k-atariextrabrowner-elf/lib/m68000/libc.a(getpwuid.o)
                0x0000000000030e64                _getpwuid
 .text          0x0000000000030e9c       0x92 /Users/davidebucci/Desktop/Synchronized/Vintage/Computing/Atari/ST/brown/lib/gcc/m68k-atariextrabrowner-elf/10.2.0/../../../../m68k-atariextrabrowner-elf/lib/m68000/libc.a(getpwuid_r.o)
                0x0000000000030e9c                _getpwuid_r
                0x0000000000030e9c                ___getpwuid_r
 *fill*         0x0000000000030f2e        0x2 4e714e71
 .text          0x0000000000030f30      0x452 /Users/davidebucci/Desktop/Synchronized/Vintage/Computing/Atari/ST/brown/lib/gcc/m68k-atariextrabrowner-elf/10.2.0/../../../../m68k-atariextrabrowner-elf/lib/m68000/libc.a(grp.o)
                0x0000000000031114                _setgrent
                0x0000000000031144                _endgrent
                0x000000000003115e                _getgrent
                0x00000000000311b2                _getgrgid
                0x0000000000031272                _getgrnam
                0x000000000003134e                _fgetgrent
 *fill*         0x0000000000031382        0x2 4e714e71
 .text          0x0000000000031384       0x2a /Users/davidebucci/Desktop/Synchronized/Vintage/Computing/Atari/ST/brown/lib/gcc/m68k-atariextrabrowner-elf/10.2.0/../../../../m68k-atariextrabrowner-elf/lib/m68000/libc.a(rewind.o)
                0x0000000000031384                _rewind
 *fill*         0x00000000000313ae        0x2 4e714e71
 .text          0x00000000000313b0      0x1b6 /Users/davidebucci/Desktop/Synchronized/Vintage/Computing/Atari/ST/brown/lib/gcc/m68k-atariextrabrowner-elf/10.2.0/../../../../m68k-atariextrabrowner-elf/lib/m68000/libc.a(asctime.o)
                0x00000000000313b0                _asctime_r
                0x0000000000031554                _asctime
 *fill*         0x0000000000031566        0x2 4e714e71
 .text          0x0000000000031568     0x1506 /Users/davidebucci/Desktop/Synchronized/Vintage/Computing/Atari/ST/brown/lib/gcc/m68k-atariextrabrowner-elf/10.2.0/../../../../m68k-atariextrabrowner-elf/lib/m68000/libc.a(strftime.o)
                0x0000000000032922                _strftime
 *fill*         0x0000000000032a6e        0x2 4e714e71
 .text          0x0000000000032a70      0x114 /Users/davidebucci/Desktop/Synchronized/Vintage/Computing/Atari/ST/brown/lib/gcc/m68k-atariextrabrowner-elf/10.2.0/../../../../m68k-atariextrabrowner-elf/lib/m68000/libc.a(gettimeofday.o)
                0x0000000000032a70                ___gettimeofday
                0x0000000000032a70                _gettimeofday
 .text          0x0000000000032b84        0x8 /Users/davidebucci/Desktop/Synchronized/Vintage/Computing/Atari/ST/brown/lib/gcc/m68k-atariextrabrowner-elf/10.2.0/../../../../m68k-atariextrabrowner-elf/lib/m68000/libc.a(setlocale.o)
                0x0000000000032b84                _setlocale
 .text          0x0000000000032b8c      0x428 /Users/davidebucci/Desktop/Synchronized/Vintage/Computing/Atari/ST/brown/lib/gcc/m68k-atariextrabrowner-elf/10.2.0/../../../../m68k-atariextrabrowner-elf/lib/m68000/libc.a(fgetpwent_r.o)
                0x0000000000032b8c                ___fgetpwent_r
                0x0000000000032b8c                _fgetpwent_r
 .text          0x0000000000032fb4        0xc /Users/davidebucci/Desktop/Synchronized/Vintage/Computing/Atari/ST/brown/lib/gcc/m68k-atariextrabrowner-elf/10.2.0/../../../../m68k-atariextrabrowner-elf/lib/m68000/libc.a(clearerr.o)
                0x0000000000032fb4                _clearerr
                0x0000000000032fb4                _clearerr_unlocked
 .text          0x0000000000032fc0       0x1e /Users/davidebucci/Desktop/Synchronized/Vintage/Computing/Atari/ST/brown/lib/gcc/m68k-atariextrabrowner-elf/10.2.0/../../../../m68k-atariextrabrowner-elf/lib/m68000/libc.a(fprintf.o)
                0x0000000000032fc0                _fprintf
 *fill*         0x0000000000032fde        0x2 4e714e71
 .text          0x0000000000032fe0       0xa2 /Users/davidebucci/Desktop/Synchronized/Vintage/Computing/Atari/ST/brown/lib/gcc/m68k-atariextrabrowner-elf/10.2.0/../../../../m68k-atariextrabrowner-elf/lib/m68000/libc.a(fputc.o)
                0x0000000000032fe0                _fputc
                0x0000000000032fe0                _fputc_unlocked
 *fill*         0x0000000000033082        0x2 4e714e71
 .text          0x0000000000033084      0x192 /Users/davidebucci/Desktop/Synchronized/Vintage/Computing/Atari/ST/brown/lib/gcc/m68k-atariextrabrowner-elf/10.2.0/../../../../m68k-atariextrabrowner-elf/lib/m68000/libc.a(fseek.o)
                0x0000000000033084                _fseek
                0x0000000000033212                _fseeko
 *fill*         0x0000000000033216        0x2 4e714e71
 .text          0x0000000000033218      0x38a /Users/davidebucci/Desktop/Synchronized/Vintage/Computing/Atari/ST/brown/lib/gcc/m68k-atariextrabrowner-elf/10.2.0/../../../../m68k-atariextrabrowner-elf/lib/m68000/libc.a(fwrite.o)
                0x0000000000033218                _fwrite_unlocked
                0x0000000000033218                _fwrite
 *fill*         0x00000000000335a2        0x2 4e714e71
 .text          0x00000000000335a4       0x1e /Users/davidebucci/Desktop/Synchronized/Vintage/Computing/Atari/ST/brown/lib/gcc/m68k-atariextrabrowner-elf/10.2.0/../../../../m68k-atariextrabrowner-elf/lib/m68000/libc.a(sprintf.o)
                0x00000000000335a4                _sprintf
 *fill*         0x00000000000335c2        0x2 4e714e71
 .text          0x00000000000335c4       0xc8 /Users/davidebucci/Desktop/Synchronized/Vintage/Computing/Atari/ST/brown/lib/gcc/m68k-atariextrabrowner-elf/10.2.0/../../../../m68k-atariextrabrowner-elf/lib/m68000/libc.a(ungetc.o)
                0x00000000000335c4                _ungetc
 .text          0x000000000003368c     0x3e52 /Users/davidebucci/Desktop/Synchronized/Vintage/Computing/Atari/ST/brown/lib/gcc/m68k-atariextrabrowner-elf/10.2.0/../../../../m68k-atariextrabrowner-elf/lib/m68000/libc.a(vfprintf.o)
                0x0000000000033bde                ___printf_pad
                0x0000000000033c5e                _vfprintf
 *fill*         0x00000000000374de        0x2 4e714e71
 .text          0x00000000000374e0       0x6c /Users/davidebucci/Desktop/Synchronized/Vintage/Computing/Atari/ST/brown/lib/gcc/m68k-atariextrabrowner-elf/10.2.0/../../../../m68k-atariextrabrowner-elf/lib/m68000/libc.a(vsprintf.o)
                0x00000000000374e0                _vsprintf
 .text          0x000000000003754c       0x26 /Users/davidebucci/Desktop/Synchronized/Vintage/Computing/Atari/ST/brown/lib/gcc/m68k-atariextrabrowner-elf/10.2.0/../../../../m68k-atariextrabrowner-elf/lib/m68000/libc.a(memchr.o)
                0x000000000003754c                _memchr
 *fill*         0x0000000000037572        0x2 4e714e71
 .text          0x0000000000037574       0x20 /Users/davidebucci/Desktop/Synchronized/Vintage/Computing/Atari/ST/brown/lib/gcc/m68k-atariextrabrowner-elf/10.2.0/../../../../m68k-atariextrabrowner-elf/lib/m68000/libc.a(mempcpy.o)
                0x0000000000037574                ___mempcpy
                0x0000000000037574                _mempcpy
 .text          0x0000000000037594       0x12 /Users/davidebucci/Desktop/Synchronized/Vintage/Computing/Atari/ST/brown/lib/gcc/m68k-atariextrabrowner-elf/10.2.0/../../../../m68k-atariextrabrowner-elf/lib/m68000/libc.a(strcpy.o)
                0x0000000000037594                _strcpy
 *fill*         0x00000000000375a6        0x2 4e714e71
 .text          0x00000000000375a8       0x5c /Users/davidebucci/Desktop/Synchronized/Vintage/Computing/Atari/ST/brown/lib/gcc/m68k-atariextrabrowner-elf/10.2.0/../../../../m68k-atariextrabrowner-elf/lib/m68000/libc.a(strerror_r.o)
                0x00000000000375a8                _strerror_r
                0x00000000000375a8                ___strerror_r
 .text          0x0000000000037604       0x30 /Users/davidebucci/Desktop/Synchronized/Vintage/Computing/Atari/ST/brown/lib/gcc/m68k-atariextrabrowner-elf/10.2.0/../../../../m68k-atariextrabrowner-elf/lib/m68000/libc.a(strnlen.o)
                0x0000000000037604                _strnlen
                0x0000000000037604                ___strnlen
 .text          0x0000000000037634      0x6b8 /Users/davidebucci/Desktop/Synchronized/Vintage/Computing/Atari/ST/brown/lib/gcc/m68k-atariextrabrowner-elf/10.2.0/../../../../m68k-atariextrabrowner-elf/lib/m68000/libc.a(_itoa.o)
                0x0000000000037634                __itoa
 .text          0x0000000000037cec        0x8 /Users/davidebucci/Desktop/Synchronized/Vintage/Computing/Atari/ST/brown/lib/gcc/m68k-atariextrabrowner-elf/10.2.0/../../../../m68k-atariextrabrowner-elf/lib/m68000/libc.a(lockfile.o)
                0x0000000000037cec                ___internal_flockfile
                0x0000000000037cec                _flockfile
                0x0000000000037cec                ___flockfile
                0x0000000000037cee                ___funlockfile
                0x0000000000037cee                ___internal_funlockfile
                0x0000000000037cee                _funlockfile
                0x0000000000037cf0                _ftrylockfile
                0x0000000000037cf0                ___internal_ftrylockfile
                0x0000000000037cf0                ___ftrylockfile
 .text          0x0000000000037cf4     0x1a44 /Users/davidebucci/Desktop/Synchronized/Vintage/Computing/Atari/ST/brown/lib/gcc/m68k-atariextrabrowner-elf/10.2.0/../../../../m68k-atariextrabrowner-elf/lib/m68000/libc.a(printf_fp.o)
                0x0000000000037e40                ___printf_fp
                0x00000000000396ec                ___guess_grouping
 .text          0x0000000000039738      0xca8 /Users/davidebucci/Desktop/Synchronized/Vintage/Computing/Atari/ST/brown/lib/gcc/m68k-atariextrabrowner-elf/10.2.0/../../../../m68k-atariextrabrowner-elf/lib/m68000/libc.a(printf_fphex.o)
                0x0000000000039738                ___printf_fphex
 .text          0x000000000003a3e0       0x42 /Users/davidebucci/Desktop/Synchronized/Vintage/Computing/Atari/ST/brown/lib/gcc/m68k-atariextrabrowner-elf/10.2.0/../../../../m68k-atariextrabrowner-elf/lib/m68000/libc.a(reg-printf.o)
                0x000000000003a3e0                _register_printf_function
                0x000000000003a3e0                ___register_printf_function
 *fill*         0x000000000003a422        0x2 4e714e71
 .text          0x000000000003a424        0x0 /Users/davidebucci/Desktop/Synchronized/Vintage/Computing/Atari/ST/brown/lib/gcc/m68k-atariextrabrowner-elf/10.2.0/../../../../m68k-atariextrabrowner-elf/lib/m68000/libc.a(fpioconst.o)
 .text          0x000000000003a424      0x13a /Users/davidebucci/Desktop/Synchronized/Vintage/Computing/Atari/ST/brown/lib/gcc/m68k-atariextrabrowner-elf/10.2.0/../../../../m68k-atariextrabrowner-elf/lib/m68000/libc.a(strerror.o)
                0x000000000003a424                _strerror
 *fill*         0x000000000003a55e        0x2 4e714e71
 .text          0x000000000003a560      0x1dc /Users/davidebucci/Desktop/Synchronized/Vintage/Computing/Atari/ST/brown/lib/gcc/m68k-atariextrabrowner-elf/10.2.0/../../../../m68k-atariextrabrowner-elf/lib/m68000/libc.a(dbl2mpn.o)
                0x000000000003a560                ___mpn_extract_double
 .text          0x000000000003a73c      0x200 /Users/davidebucci/Desktop/Synchronized/Vintage/Computing/Atari/ST/brown/lib/gcc/m68k-atariextrabrowner-elf/10.2.0/../../../../m68k-atariextrabrowner-elf/lib/m68000/libc.a(ldbl2mpn.o)
                0x000000000003a73c                ___mpn_extract_long_double
 .text          0x000000000003a93c        0x0 /Users/davidebucci/Desktop/Synchronized/Vintage/Computing/Atari/ST/brown/lib/gcc/m68k-atariextrabrowner-elf/10.2.0/../../../../m68k-atariextrabrowner-elf/lib/m68000/libc.a(mp_clz_tab.o)
 .text          0x000000000003a93c       0x42 /Users/davidebucci/Desktop/Synchronized/Vintage/Computing/Atari/ST/brown/lib/gcc/m68k-atariextrabrowner-elf/10.2.0/../../../../m68k-atariextrabrowner-elf/lib/m68000/libc.a(mpn-cmp.o)
                0x000000000003a93c                ___mpn_cmp
 *fill*         0x000000000003a97e        0x2 4e714e71
 .text          0x000000000003a980      0x782 /Users/davidebucci/Desktop/Synchronized/Vintage/Computing/Atari/ST/brown/lib/gcc/m68k-atariextrabrowner-elf/10.2.0/../../../../m68k-atariextrabrowner-elf/lib/m68000/libc.a(mpn-divrem.o)
                0x000000000003a980                ___mpn_divrem
 *fill*         0x000000000003b102        0x2 4e714e71
 .text          0x000000000003b104       0x5c /Users/davidebucci/Desktop/Synchronized/Vintage/Computing/Atari/ST/brown/lib/gcc/m68k-atariextrabrowner-elf/10.2.0/../../../../m68k-atariextrabrowner-elf/lib/m68000/libc.a(mpn-lshift.o)
                0x000000000003b104                ___mpn_lshift
 .text          0x000000000003b160      0x2ce /Users/davidebucci/Desktop/Synchronized/Vintage/Computing/Atari/ST/brown/lib/gcc/m68k-atariextrabrowner-elf/10.2.0/../../../../m68k-atariextrabrowner-elf/lib/m68000/libc.a(mpn-mul.o)
                0x000000000003b160                ___mpn_mul
 *fill*         0x000000000003b42e        0x2 4e714e71
 .text          0x000000000003b430       0x6a /Users/davidebucci/Desktop/Synchronized/Vintage/Computing/Atari/ST/brown/lib/gcc/m68k-atariextrabrowner-elf/10.2.0/../../../../m68k-atariextrabrowner-elf/lib/m68000/libc.a(mpn-mul_1.o)
                0x000000000003b430                ___mpn_mul_1
 *fill*         0x000000000003b49a        0x2 4e714e71
 .text          0x000000000003b49c      0x982 /Users/davidebucci/Desktop/Synchronized/Vintage/Computing/Atari/ST/brown/lib/gcc/m68k-atariextrabrowner-elf/10.2.0/../../../../m68k-atariextrabrowner-elf/lib/m68000/libc.a(mpn-mul_n.o)
                0x000000000003b49c                ___mpn_impn_mul_n_basecase
                0x000000000003b598                ___mpn_impn_mul_n
                0x000000000003b93c                ___mpn_impn_sqr_n_basecase
                0x000000000003ba32                ___mpn_impn_sqr_n
                0x000000000003bd8a                ___mpn_mul_n
 *fill*         0x000000000003be1e        0x2 4e714e71
 .text          0x000000000003be20       0x54 /Users/davidebucci/Desktop/Synchronized/Vintage/Computing/Atari/ST/brown/lib/gcc/m68k-atariextrabrowner-elf/10.2.0/../../../../m68k-atariextrabrowner-elf/lib/m68000/libc.a(mpn-rshift.o)
                0x000000000003be20                ___mpn_rshift
 .text          0x000000000003be74       0x54 /Users/davidebucci/Desktop/Synchronized/Vintage/Computing/Atari/ST/brown/lib/gcc/m68k-atariextrabrowner-elf/10.2.0/../../../../m68k-atariextrabrowner-elf/lib/m68000/libc.a(mpn-sub_n.o)
                0x000000000003be74                ___mpn_sub_n
 .text          0x000000000003bec8       0x7a /Users/davidebucci/Desktop/Synchronized/Vintage/Computing/Atari/ST/brown/lib/gcc/m68k-atariextrabrowner-elf/10.2.0/../../../../m68k-atariextrabrowner-elf/lib/m68000/libc.a(mpn-submul_1.o)
                0x000000000003bec8                ___mpn_submul_1
 *fill*         0x000000000003bf42        0x2 4e714e71
 .text          0x000000000003bf44       0x2e /Users/davidebucci/Desktop/Synchronized/Vintage/Computing/Atari/ST/brown/lib/gcc/m68k-atariextrabrowner-elf/10.2.0/../../../../m68k-atariextrabrowner-elf/lib/m68000/libc.a(s_isinf.o)
                0x000000000003bf44                _isinf
                0x000000000003bf44                ___isinf
 *fill*         0x000000000003bf72        0x2 4e714e71
 .text          0x000000000003bf74       0x72 /Users/davidebucci/Desktop/Synchronized/Vintage/Computing/Atari/ST/brown/lib/gcc/m68k-atariextrabrowner-elf/10.2.0/../../../../m68k-atariextrabrowner-elf/lib/m68000/libc.a(s_isinfl.o)
                0x000000000003bf74                ___isinfl
                0x000000000003bf74                _isinfl
 *fill*         0x000000000003bfe6        0x2 4e714e71
 .text          0x000000000003bfe8       0x28 /Users/davidebucci/Desktop/Synchronized/Vintage/Computing/Atari/ST/brown/lib/gcc/m68k-atariextrabrowner-elf/10.2.0/../../../../m68k-atariextrabrowner-elf/lib/m68000/libc.a(s_isnan.o)
                0x000000000003bfe8                _isnan
                0x000000000003bfe8                ___isnan
 .text          0x000000000003c010       0x6e /Users/davidebucci/Desktop/Synchronized/Vintage/Computing/Atari/ST/brown/lib/gcc/m68k-atariextrabrowner-elf/10.2.0/../../../../m68k-atariextrabrowner-elf/lib/m68000/libc.a(s_isnanl.o)
                0x000000000003c010                ___isnanl
                0x000000000003c010                _isnanl
 *fill*         0x000000000003c07e        0x2 4e714e71
 .text          0x000000000003c080        0xc /Users/davidebucci/Desktop/Synchronized/Vintage/Computing/Atari/ST/brown/lib/gcc/m68k-atariextrabrowner-elf/10.2.0/../../../../m68k-atariextrabrowner-elf/lib/m68000/libc.a(s_signbit.o)
                0x000000000003c080                ___signbit
                0x000000000003c080                _signbit
 .text          0x000000000003c08c       0x22 /Users/davidebucci/Desktop/Synchronized/Vintage/Computing/Atari/ST/brown/lib/gcc/m68k-atariextrabrowner-elf/10.2.0/../../../../m68k-atariextrabrowner-elf/lib/m68000/libc.a(s_signbitl.o)
                0x000000000003c08c                ___signbitl
                0x000000000003c08c                _signbitl
 *fill*         0x000000000003c0ae        0x2 4e714e71
 .text          0x000000000003c0b0       0x22 /Users/davidebucci/Desktop/Synchronized/Vintage/Computing/Atari/ST/brown/lib/gcc/m68k-atariextrabrowner-elf/10.2.0/../../../../m68k-atariextrabrowner-elf/lib/m68000/libc.a(snprintf.o)
                0x000000000003c0b0                ___snprintf
                0x000000000003c0b0                _snprintf
 *fill*         0x000000000003c0d2        0x2 4e714e71
 .text          0x000000000003c0d4       0xc2 /Users/davidebucci/Desktop/Synchronized/Vintage/Computing/Atari/ST/brown/lib/gcc/m68k-atariextrabrowner-elf/10.2.0/../../../../m68k-atariextrabrowner-elf/lib/m68000/libc.a(vsnprintf.o)
                0x000000000003c0ec                _vsnprintf
                0x000000000003c0ec                ___vsnprintf
 *fill*         0x000000000003c196        0x2 4e714e71
 .text          0x000000000003c198       0x52 /Users/davidebucci/Desktop/Synchronized/Vintage/Computing/Atari/ST/brown/lib/gcc/m68k-atariextrabrowner-elf/10.2.0/../../../../m68k-atariextrabrowner-elf/lib/m68000/libc.a(mpn-add_n.o)
                0x000000000003c198                ___mpn_add_n
 *fill*         0x000000000003c1ea        0x2 4e714e71
 .text          0x000000000003c1ec       0x78 /Users/davidebucci/Desktop/Synchronized/Vintage/Computing/Atari/ST/brown/lib/gcc/m68k-atariextrabrowner-elf/10.2.0/../../../../m68k-atariextrabrowner-elf/lib/m68000/libc.a(mpn-addmul_1.o)
                0x000000000003c1ec                ___mpn_addmul_1
 .text          0x000000000003c264       0x7e /Users/davidebucci/Desktop/Synchronized/Vintage/Computing/Atari/ST/brown/lib/gcc/m68k-atariextrabrowner-elf/10.2.0/../../../../m68k-atariextrabrowner-elf/lib/m68000/libc.a(fputs.o)
                0x000000000003c264                _fputs
                0x000000000003c264                _fputs_unlocked
 *fill*         0x000000000003c2e2        0x2 4e714e71
 .text          0x000000000003c2e4       0x22 /Users/davidebucci/Desktop/Synchronized/Vintage/Computing/Atari/ST/brown//lib/gcc/m68k-atariextrabrowner-elf/10.2.0/m68000/libgcc.a(_mulsi3.o)
                0x000000000003c2e4                ___mulsi3
 *fill*         0x000000000003c306        0x2 4e714e71
 .text          0x000000000003c308       0x5c /Users/davidebucci/Desktop/Synchronized/Vintage/Computing/Atari/ST/brown//lib/gcc/m68k-atariextrabrowner-elf/10.2.0/m68000/libgcc.a(_udivsi3.o)
                0x000000000003c308                ___udivsi3
 .text          0x000000000003c364       0x2e /Users/davidebucci/Desktop/Synchronized/Vintage/Computing/Atari/ST/brown//lib/gcc/m68k-atariextrabrowner-elf/10.2.0/m68000/libgcc.a(_divsi3.o)
                0x000000000003c364                ___divsi3
 *fill*         0x000000000003c392        0x2 4e714e71
 .text          0x000000000003c394       0x2e /Users/davidebucci/Desktop/Synchronized/Vintage/Computing/Atari/ST/brown//lib/gcc/m68k-atariextrabrowner-elf/10.2.0/m68000/libgcc.a(_umodsi3.o)
                0x000000000003c394                ___umodsi3
 *fill*         0x000000000003c3c2        0x2 4e714e71
 .text          0x000000000003c3c4       0x2e /Users/davidebucci/Desktop/Synchronized/Vintage/Computing/Atari/ST/brown//lib/gcc/m68k-atariextrabrowner-elf/10.2.0/m68000/libgcc.a(_modsi3.o)
                0x000000000003c3c4                ___modsi3
 *fill*         0x000000000003c3f2        0x2 4e714e71
 .text          0x000000000003c3f4      0x9cc /Users/davidebucci/Desktop/Synchronized/Vintage/Computing/Atari/ST/brown//lib/gcc/m68k-atariextrabrowner-elf/10.2.0/m68000/libgcc.a(_double.o)
                0x000000000003c44e                ___subdf3
                0x000000000003c454                ___adddf3
                0x000000000003c7ea                ___muldf3
                0x000000000003c998                ___divdf3
                0x000000000003cc0c                ___negdf2
                0x000000000003cc6a                ___cmpdf2_internal
                0x000000000003cd3a                ___cmpdf2
 .text          0x000000000003cdc0       0x6a /Users/davidebucci/Desktop/Synchronized/Vintage/Computing/Atari/ST/brown//lib/gcc/m68k-atariextrabrowner-elf/10.2.0/m68000/libgcc.a(_floatex.o)
                0x000000000003cdc0                ___clear_sticky_bit
                0x000000000003cdce                $_exception_handler
 *fill*         0x000000000003ce2a        0x2 4e714e71
 .text          0x000000000003ce2c       0x22 /Users/davidebucci/Desktop/Synchronized/Vintage/Computing/Atari/ST/brown//lib/gcc/m68k-atariextrabrowner-elf/10.2.0/m68000/libgcc.a(_ltdf2.o)
                0x000000000003ce2c                ___ltdf2
 *fill*         0x000000000003ce4e        0x2 4e714e71
 .text          0x000000000003ce50      0x530 /Users/davidebucci/Desktop/Synchronized/Vintage/Computing/Atari/ST/brown//lib/gcc/m68k-atariextrabrowner-elf/10.2.0/m68000/libgcc.a(fpgnulib.o)
                0x000000000003cefe                ___unordsf2
                0x000000000003cf54                ___unorddf2
                0x000000000003cfc4                ___floatunsidf
                0x000000000003d03a                ___floatsidf
                0x000000000003d04a                ___floatunsisf
                0x000000000003d0c4                ___floatsisf
                0x000000000003d0e0                ___extendsfdf2
                0x000000000003d154                ___truncdfsf2
                0x000000000003d25c                ___fixdfsi
                0x000000000003d2ec                ___fixsfsi
 .text          0x000000000003d380      0x912 /Users/davidebucci/Desktop/Synchronized/Vintage/Computing/Atari/ST/brown//lib/gcc/m68k-atariextrabrowner-elf/10.2.0/m68000/libgcc.a(xfgnulib.o)
                0x000000000003d380                ___unordxf2
                0x000000000003d454                ___extenddfxf2
                0x000000000003d506                ___truncxfdf2
                0x000000000003d5ea                ___extendsfxf2
                0x000000000003d6a4                ___truncxfsf2
                0x000000000003d7a2                ___floatsixf
                0x000000000003d7e8                ___floatunsixf
                0x000000000003d82e                ___fixxfsi
                0x000000000003d850                ___addxf3
                0x000000000003d8c6                ___subxf3
                0x000000000003d93c                ___mulxf3
                0x000000000003d9b2                ___divxf3
                0x000000000003da28                ___negxf2
                0x000000000003da7e                ___cmpxf2
                0x000000000003daca                ___eqxf2
                0x000000000003db16                ___nexf2
                0x000000000003db62                ___ltxf2
                0x000000000003dbae                ___lexf2
                0x000000000003dbfa                ___gtxf2
                0x000000000003dc46                ___gexf2
 *fill*         0x000000000003dc92        0x2 4e714e71
 .text          0x000000000003dc94       0x24 /Users/davidebucci/Desktop/Synchronized/Vintage/Computing/Atari/ST/brown/lib/gcc/m68k-atariextrabrowner-elf/10.2.0/m68000/crtend.o
 *(.gnu.warning)

.fini           0x000000000003dcb8        0x6
 *(SORT_NONE(.fini))
 .fini          0x000000000003dcb8        0x6 /Users/davidebucci/Desktop/Synchronized/Vintage/Computing/Atari/ST/brown/lib/gcc/m68k-atariextrabrowner-elf/10.2.0/m68000/crtbegin.o
                [!provide]                        PROVIDE (__etext = .)
                0x000000000003dcbe                PROVIDE (_etext = .)
                [!provide]                        PROVIDE (etext = .)

.rodata         0x000000000003dcbe     0xe6f2
 *(.rodata .rodata.* .gnu.linkonce.r.*)
 .rodata.writesameln.constprop.0.str1.1
                0x000000000003dcbe      0xcb1 /var/folders/sk/pxzc9l1n12xfhw7mpgdgdkdc0000gn/T//tqf40.elf.kOuEog.ltrans0.ltrans.o
                                          0x2 (size before relaxing)
 .rodata.writesameln.constprop.1.str1.1
                0x000000000003dcbe      0xcb1 /var/folders/sk/pxzc9l1n12xfhw7mpgdgdkdc0000gn/T//tqf40.elf.kOuEog.ltrans0.ltrans.o
                                          0x2 (size before relaxing)
 .rodata.loadgame.constprop.0.str1.1
                0x000000000003dcbe       0x58 /var/folders/sk/pxzc9l1n12xfhw7mpgdgdkdc0000gn/T//tqf40.elf.kOuEog.ltrans0.ltrans.o
                                         0x5a (size before relaxing)
 .rodata.game_cycle.str1.1
                0x000000000003dd16       0x5c /var/folders/sk/pxzc9l1n12xfhw7mpgdgdkdc0000gn/T//tqf40.elf.kOuEog.ltrans0.ltrans.o
                                         0x5e (size before relaxing)
 .rodata.message1026
                0x000000000003dd72        0x4 /var/folders/sk/pxzc9l1n12xfhw7mpgdgdkdc0000gn/T//tqf40.elf.kOuEog.ltrans0.ltrans.o
 .rodata.message1025
                0x000000000003dd76        0x3 /var/folders/sk/pxzc9l1n12xfhw7mpgdgdkdc0000gn/T//tqf40.elf.kOuEog.ltrans0.ltrans.o
 .rodata.message1024
                0x000000000003dd79        0x4 /var/folders/sk/pxzc9l1n12xfhw7mpgdgdkdc0000gn/T//tqf40.elf.kOuEog.ltrans0.ltrans.o
 .rodata.message1023
                0x000000000003dd7d        0x3 /var/folders/sk/pxzc9l1n12xfhw7mpgdgdkdc0000gn/T//tqf40.elf.kOuEog.ltrans0.ltrans.o
 .rodata.message1022
                0x000000000003dd80        0x3 /var/folders/sk/pxzc9l1n12xfhw7mpgdgdkdc0000gn/T//tqf40.elf.kOuEog.ltrans0.ltrans.o
 .rodata.message1021
                0x000000000003dd83        0x3 /var/folders/sk/pxzc9l1n12xfhw7mpgdgdkdc0000gn/T//tqf40.elf.kOuEog.ltrans0.ltrans.o
 .rodata.desc_l512
                0x000000000003dd86        0xd /var/folders/sk/pxzc9l1n12xfhw7mpgdgdkdc0000gn/T//tqf40.elf.kOuEog.ltrans0.ltrans.o
 .rodata.desc_l511
                0x000000000003dd93        0xd /var/folders/sk/pxzc9l1n12xfhw7mpgdgdkdc0000gn/T//tqf40.elf.kOuEog.ltrans0.ltrans.o
 .rodata.desc_l510
                0x000000000003dda0       0x13 /var/folders/sk/pxzc9l1n12xfhw7mpgdgdkdc0000gn/T//tqf40.elf.kOuEog.ltrans0.ltrans.o
 .rodata.desc_l509
                0x000000000003ddb3        0xf /var/folders/sk/pxzc9l1n12xfhw7mpgdgdkdc0000gn/T//tqf40.elf.kOuEog.ltrans0.ltrans.o
 .rodata.desc_l508
                0x000000000003ddc2        0xb /var/folders/sk/pxzc9l1n12xfhw7mpgdgdkdc0000gn/T//tqf40.elf.kOuEog.ltrans0.ltrans.o
 .rodata.desc_l507
                0x000000000003ddcd        0x6 /var/folders/sk/pxzc9l1n12xfhw7mpgdgdkdc0000gn/T//tqf40.elf.kOuEog.ltrans0.ltrans.o
 .rodata.desc_l506
                0x000000000003ddd3        0xd /var/folders/sk/pxzc9l1n12xfhw7mpgdgdkdc0000gn/T//tqf40.elf.kOuEog.ltrans0.ltrans.o
 .rodata.desc_l505
                0x000000000003dde0        0x8 /var/folders/sk/pxzc9l1n12xfhw7mpgdgdkdc0000gn/T//tqf40.elf.kOuEog.ltrans0.ltrans.o
 .rodata.desc_l504
                0x000000000003dde8        0xf /var/folders/sk/pxzc9l1n12xfhw7mpgdgdkdc0000gn/T//tqf40.elf.kOuEog.ltrans0.ltrans.o
 .rodata.desc_l503
                0x000000000003ddf7        0xf /var/folders/sk/pxzc9l1n12xfhw7mpgdgdkdc0000gn/T//tqf40.elf.kOuEog.ltrans0.ltrans.o
 .rodata.desc_l502
                0x000000000003de06       0x17 /var/folders/sk/pxzc9l1n12xfhw7mpgdgdkdc0000gn/T//tqf40.elf.kOuEog.ltrans0.ltrans.o
 .rodata.desc_l501
                0x000000000003de1d        0xb /var/folders/sk/pxzc9l1n12xfhw7mpgdgdkdc0000gn/T//tqf40.elf.kOuEog.ltrans0.ltrans.o
 .rodata.desc_l500
                0x000000000003de28        0xa /var/folders/sk/pxzc9l1n12xfhw7mpgdgdkdc0000gn/T//tqf40.elf.kOuEog.ltrans0.ltrans.o
 .rodata.desc_l208
                0x000000000003de32       0x12 /var/folders/sk/pxzc9l1n12xfhw7mpgdgdkdc0000gn/T//tqf40.elf.kOuEog.ltrans0.ltrans.o
 .rodata.desc_l182
                0x000000000003de44       0x16 /var/folders/sk/pxzc9l1n12xfhw7mpgdgdkdc0000gn/T//tqf40.elf.kOuEog.ltrans0.ltrans.o
 .rodata.desc_l181
                0x000000000003de5a       0x10 /var/folders/sk/pxzc9l1n12xfhw7mpgdgdkdc0000gn/T//tqf40.elf.kOuEog.ltrans0.ltrans.o
 .rodata.desc_l180
                0x000000000003de6a        0xd /var/folders/sk/pxzc9l1n12xfhw7mpgdgdkdc0000gn/T//tqf40.elf.kOuEog.ltrans0.ltrans.o
 .rodata.desc_l179
                0x000000000003de77       0x15 /var/folders/sk/pxzc9l1n12xfhw7mpgdgdkdc0000gn/T//tqf40.elf.kOuEog.ltrans0.ltrans.o
 .rodata.desc_l178
                0x000000000003de8c       0x13 /var/folders/sk/pxzc9l1n12xfhw7mpgdgdkdc0000gn/T//tqf40.elf.kOuEog.ltrans0.ltrans.o
 .rodata.desc_l177
                0x000000000003de9f        0xe /var/folders/sk/pxzc9l1n12xfhw7mpgdgdkdc0000gn/T//tqf40.elf.kOuEog.ltrans0.ltrans.o
 .rodata.desc_l176
                0x000000000003dead        0xb /var/folders/sk/pxzc9l1n12xfhw7mpgdgdkdc0000gn/T//tqf40.elf.kOuEog.ltrans0.ltrans.o
 .rodata.desc_l175
                0x000000000003deb8        0xa /var/folders/sk/pxzc9l1n12xfhw7mpgdgdkdc0000gn/T//tqf40.elf.kOuEog.ltrans0.ltrans.o
 .rodata.desc_l174
                0x000000000003dec2       0x13 /var/folders/sk/pxzc9l1n12xfhw7mpgdgdkdc0000gn/T//tqf40.elf.kOuEog.ltrans0.ltrans.o
 .rodata.desc_l173
                0x000000000003ded5       0x10 /var/folders/sk/pxzc9l1n12xfhw7mpgdgdkdc0000gn/T//tqf40.elf.kOuEog.ltrans0.ltrans.o
 .rodata.desc_l172
                0x000000000003dee5       0x17 /var/folders/sk/pxzc9l1n12xfhw7mpgdgdkdc0000gn/T//tqf40.elf.kOuEog.ltrans0.ltrans.o
 .rodata.desc_l171
                0x000000000003defc       0x10 /var/folders/sk/pxzc9l1n12xfhw7mpgdgdkdc0000gn/T//tqf40.elf.kOuEog.ltrans0.ltrans.o
 .rodata.desc_l170
                0x000000000003df0c        0x7 /var/folders/sk/pxzc9l1n12xfhw7mpgdgdkdc0000gn/T//tqf40.elf.kOuEog.ltrans0.ltrans.o
 .rodata.desc_l105
                0x000000000003df13       0x11 /var/folders/sk/pxzc9l1n12xfhw7mpgdgdkdc0000gn/T//tqf40.elf.kOuEog.ltrans0.ltrans.o
 .rodata.desc_l49
                0x000000000003df24       0x10 /var/folders/sk/pxzc9l1n12xfhw7mpgdgdkdc0000gn/T//tqf40.elf.kOuEog.ltrans0.ltrans.o
 .rodata.desc_l48
                0x000000000003df34        0xc /var/folders/sk/pxzc9l1n12xfhw7mpgdgdkdc0000gn/T//tqf40.elf.kOuEog.ltrans0.ltrans.o
 .rodata.desc_l47
                0x000000000003df40        0xe /var/folders/sk/pxzc9l1n12xfhw7mpgdgdkdc0000gn/T//tqf40.elf.kOuEog.ltrans0.ltrans.o
 .rodata.desc_l46
                0x000000000003df4e        0xf /var/folders/sk/pxzc9l1n12xfhw7mpgdgdkdc0000gn/T//tqf40.elf.kOuEog.ltrans0.ltrans.o
 .rodata.desc_l45
                0x000000000003df5d        0xb /var/folders/sk/pxzc9l1n12xfhw7mpgdgdkdc0000gn/T//tqf40.elf.kOuEog.ltrans0.ltrans.o
 .rodata.desc_l44
                0x000000000003df68        0xb /var/folders/sk/pxzc9l1n12xfhw7mpgdgdkdc0000gn/T//tqf40.elf.kOuEog.ltrans0.ltrans.o
 .rodata.desc_l43
                0x000000000003df73        0x9 /var/folders/sk/pxzc9l1n12xfhw7mpgdgdkdc0000gn/T//tqf40.elf.kOuEog.ltrans0.ltrans.o
 .rodata.desc_l42
                0x000000000003df7c       0x16 /var/folders/sk/pxzc9l1n12xfhw7mpgdgdkdc0000gn/T//tqf40.elf.kOuEog.ltrans0.ltrans.o
 .rodata.desc_l41
                0x000000000003df92        0xf /var/folders/sk/pxzc9l1n12xfhw7mpgdgdkdc0000gn/T//tqf40.elf.kOuEog.ltrans0.ltrans.o
 .rodata.desc_l40
                0x000000000003dfa1        0xa /var/folders/sk/pxzc9l1n12xfhw7mpgdgdkdc0000gn/T//tqf40.elf.kOuEog.ltrans0.ltrans.o
 .rodata.desc_l38
                0x000000000003dfab        0xf /var/folders/sk/pxzc9l1n12xfhw7mpgdgdkdc0000gn/T//tqf40.elf.kOuEog.ltrans0.ltrans.o
 .rodata.desc_l37
                0x000000000003dfba        0xb /var/folders/sk/pxzc9l1n12xfhw7mpgdgdkdc0000gn/T//tqf40.elf.kOuEog.ltrans0.ltrans.o
 .rodata.desc_l36
                0x000000000003dfc5        0xf /var/folders/sk/pxzc9l1n12xfhw7mpgdgdkdc0000gn/T//tqf40.elf.kOuEog.ltrans0.ltrans.o
 .rodata.desc_l35
                0x000000000003dfd4        0xc /var/folders/sk/pxzc9l1n12xfhw7mpgdgdkdc0000gn/T//tqf40.elf.kOuEog.ltrans0.ltrans.o
 .rodata.desc_l34
                0x000000000003dfe0        0xf /var/folders/sk/pxzc9l1n12xfhw7mpgdgdkdc0000gn/T//tqf40.elf.kOuEog.ltrans0.ltrans.o
 .rodata.desc_l33
                0x000000000003dfef        0xb /var/folders/sk/pxzc9l1n12xfhw7mpgdgdkdc0000gn/T//tqf40.elf.kOuEog.ltrans0.ltrans.o
 .rodata.desc_l32
                0x000000000003dffa        0x9 /var/folders/sk/pxzc9l1n12xfhw7mpgdgdkdc0000gn/T//tqf40.elf.kOuEog.ltrans0.ltrans.o
 .rodata.short_d104
                0x000000000003e003        0x6 /var/folders/sk/pxzc9l1n12xfhw7mpgdgdkdc0000gn/T//tqf40.elf.kOuEog.ltrans0.ltrans.o
 .rodata.long_d104
                0x000000000003e009       0x7c /var/folders/sk/pxzc9l1n12xfhw7mpgdgdkdc0000gn/T//tqf40.elf.kOuEog.ltrans0.ltrans.o
 .rodata.short_d101
                0x000000000003e085        0x6 /var/folders/sk/pxzc9l1n12xfhw7mpgdgdkdc0000gn/T//tqf40.elf.kOuEog.ltrans0.ltrans.o
 .rodata.long_d101
                0x000000000003e08b      0x10b /var/folders/sk/pxzc9l1n12xfhw7mpgdgdkdc0000gn/T//tqf40.elf.kOuEog.ltrans0.ltrans.o
 .rodata.short_d100
                0x000000000003e196        0x9 /var/folders/sk/pxzc9l1n12xfhw7mpgdgdkdc0000gn/T//tqf40.elf.kOuEog.ltrans0.ltrans.o
 .rodata.long_d100
                0x000000000003e19f      0x222 /var/folders/sk/pxzc9l1n12xfhw7mpgdgdkdc0000gn/T//tqf40.elf.kOuEog.ltrans0.ltrans.o
 .rodata.short_d81
                0x000000000003e3c1        0xc /var/folders/sk/pxzc9l1n12xfhw7mpgdgdkdc0000gn/T//tqf40.elf.kOuEog.ltrans0.ltrans.o
 .rodata.long_d81
                0x000000000003e3cd       0x2e /var/folders/sk/pxzc9l1n12xfhw7mpgdgdkdc0000gn/T//tqf40.elf.kOuEog.ltrans0.ltrans.o
 .rodata.short_d80
                0x000000000003e3fb        0x7 /var/folders/sk/pxzc9l1n12xfhw7mpgdgdkdc0000gn/T//tqf40.elf.kOuEog.ltrans0.ltrans.o
 .rodata.long_d80
                0x000000000003e402       0x88 /var/folders/sk/pxzc9l1n12xfhw7mpgdgdkdc0000gn/T//tqf40.elf.kOuEog.ltrans0.ltrans.o
 .rodata.short_d79
                0x000000000003e48a        0xb /var/folders/sk/pxzc9l1n12xfhw7mpgdgdkdc0000gn/T//tqf40.elf.kOuEog.ltrans0.ltrans.o
 .rodata.long_d79
                0x000000000003e495       0x60 /var/folders/sk/pxzc9l1n12xfhw7mpgdgdkdc0000gn/T//tqf40.elf.kOuEog.ltrans0.ltrans.o
 .rodata.short_d78
                0x000000000003e4f5        0xb /var/folders/sk/pxzc9l1n12xfhw7mpgdgdkdc0000gn/T//tqf40.elf.kOuEog.ltrans0.ltrans.o
 .rodata.long_d78
                0x000000000003e500       0x39 /var/folders/sk/pxzc9l1n12xfhw7mpgdgdkdc0000gn/T//tqf40.elf.kOuEog.ltrans0.ltrans.o
 .rodata.short_d77
                0x000000000003e539        0xa /var/folders/sk/pxzc9l1n12xfhw7mpgdgdkdc0000gn/T//tqf40.elf.kOuEog.ltrans0.ltrans.o
 .rodata.long_d77
                0x000000000003e543       0x75 /var/folders/sk/pxzc9l1n12xfhw7mpgdgdkdc0000gn/T//tqf40.elf.kOuEog.ltrans0.ltrans.o
 .rodata.short_d76
                0x000000000003e5b8       0x10 /var/folders/sk/pxzc9l1n12xfhw7mpgdgdkdc0000gn/T//tqf40.elf.kOuEog.ltrans0.ltrans.o
 .rodata.long_d76
                0x000000000003e5c8       0x9b /var/folders/sk/pxzc9l1n12xfhw7mpgdgdkdc0000gn/T//tqf40.elf.kOuEog.ltrans0.ltrans.o
 .rodata.short_d75
                0x000000000003e663        0x7 /var/folders/sk/pxzc9l1n12xfhw7mpgdgdkdc0000gn/T//tqf40.elf.kOuEog.ltrans0.ltrans.o
 .rodata.long_d75
                0x000000000003e66a       0x1b /var/folders/sk/pxzc9l1n12xfhw7mpgdgdkdc0000gn/T//tqf40.elf.kOuEog.ltrans0.ltrans.o
 .rodata.short_d74
                0x000000000003e685        0xb /var/folders/sk/pxzc9l1n12xfhw7mpgdgdkdc0000gn/T//tqf40.elf.kOuEog.ltrans0.ltrans.o
 .rodata.long_d74
                0x000000000003e690       0x63 /var/folders/sk/pxzc9l1n12xfhw7mpgdgdkdc0000gn/T//tqf40.elf.kOuEog.ltrans0.ltrans.o
 .rodata.short_d73
                0x000000000003e6f3        0xe /var/folders/sk/pxzc9l1n12xfhw7mpgdgdkdc0000gn/T//tqf40.elf.kOuEog.ltrans0.ltrans.o
 .rodata.long_d73
                0x000000000003e701       0x34 /var/folders/sk/pxzc9l1n12xfhw7mpgdgdkdc0000gn/T//tqf40.elf.kOuEog.ltrans0.ltrans.o
 .rodata.short_d72
                0x000000000003e735        0x5 /var/folders/sk/pxzc9l1n12xfhw7mpgdgdkdc0000gn/T//tqf40.elf.kOuEog.ltrans0.ltrans.o
 .rodata.long_d72
                0x000000000003e73a       0x5e /var/folders/sk/pxzc9l1n12xfhw7mpgdgdkdc0000gn/T//tqf40.elf.kOuEog.ltrans0.ltrans.o
 .rodata.short_d71
                0x000000000003e798        0xb /var/folders/sk/pxzc9l1n12xfhw7mpgdgdkdc0000gn/T//tqf40.elf.kOuEog.ltrans0.ltrans.o
 .rodata.long_d71
                0x000000000003e7a3       0x43 /var/folders/sk/pxzc9l1n12xfhw7mpgdgdkdc0000gn/T//tqf40.elf.kOuEog.ltrans0.ltrans.o
 .rodata.short_d70
                0x000000000003e7e6        0x6 /var/folders/sk/pxzc9l1n12xfhw7mpgdgdkdc0000gn/T//tqf40.elf.kOuEog.ltrans0.ltrans.o
 .rodata.long_d70
                0x000000000003e7ec       0x91 /var/folders/sk/pxzc9l1n12xfhw7mpgdgdkdc0000gn/T//tqf40.elf.kOuEog.ltrans0.ltrans.o
 .rodata.short_d69
                0x000000000003e87d        0xa /var/folders/sk/pxzc9l1n12xfhw7mpgdgdkdc0000gn/T//tqf40.elf.kOuEog.ltrans0.ltrans.o
 .rodata.long_d69
                0x000000000003e887       0x58 /var/folders/sk/pxzc9l1n12xfhw7mpgdgdkdc0000gn/T//tqf40.elf.kOuEog.ltrans0.ltrans.o
 .rodata.short_d68
                0x000000000003e8df        0x4 /var/folders/sk/pxzc9l1n12xfhw7mpgdgdkdc0000gn/T//tqf40.elf.kOuEog.ltrans0.ltrans.o
 .rodata.long_d68
                0x000000000003e8e3       0x34 /var/folders/sk/pxzc9l1n12xfhw7mpgdgdkdc0000gn/T//tqf40.elf.kOuEog.ltrans0.ltrans.o
 .rodata.short_d67
                0x000000000003e917        0x7 /var/folders/sk/pxzc9l1n12xfhw7mpgdgdkdc0000gn/T//tqf40.elf.kOuEog.ltrans0.ltrans.o
 .rodata.long_d67
                0x000000000003e91e       0x1b /var/folders/sk/pxzc9l1n12xfhw7mpgdgdkdc0000gn/T//tqf40.elf.kOuEog.ltrans0.ltrans.o
 .rodata.short_d66
                0x000000000003e939        0x5 /var/folders/sk/pxzc9l1n12xfhw7mpgdgdkdc0000gn/T//tqf40.elf.kOuEog.ltrans0.ltrans.o
 .rodata.long_d66
                0x000000000003e93e       0x3b /var/folders/sk/pxzc9l1n12xfhw7mpgdgdkdc0000gn/T//tqf40.elf.kOuEog.ltrans0.ltrans.o
 .rodata.short_d65
                0x000000000003e979        0xa /var/folders/sk/pxzc9l1n12xfhw7mpgdgdkdc0000gn/T//tqf40.elf.kOuEog.ltrans0.ltrans.o
 .rodata.long_d65
                0x000000000003e983       0x3e /var/folders/sk/pxzc9l1n12xfhw7mpgdgdkdc0000gn/T//tqf40.elf.kOuEog.ltrans0.ltrans.o
 .rodata.short_d64
                0x000000000003e9c1        0xa /var/folders/sk/pxzc9l1n12xfhw7mpgdgdkdc0000gn/T//tqf40.elf.kOuEog.ltrans0.ltrans.o
 .rodata.long_d64
                0x000000000003e9cb       0x52 /var/folders/sk/pxzc9l1n12xfhw7mpgdgdkdc0000gn/T//tqf40.elf.kOuEog.ltrans0.ltrans.o
 .rodata.short_d63
                0x000000000003ea1d        0xa /var/folders/sk/pxzc9l1n12xfhw7mpgdgdkdc0000gn/T//tqf40.elf.kOuEog.ltrans0.ltrans.o
 .rodata.long_d63
                0x000000000003ea27       0x2a /var/folders/sk/pxzc9l1n12xfhw7mpgdgdkdc0000gn/T//tqf40.elf.kOuEog.ltrans0.ltrans.o
 .rodata.short_d62
                0x000000000003ea51        0xa /var/folders/sk/pxzc9l1n12xfhw7mpgdgdkdc0000gn/T//tqf40.elf.kOuEog.ltrans0.ltrans.o
 .rodata.long_d62
                0x000000000003ea5b       0x3f /var/folders/sk/pxzc9l1n12xfhw7mpgdgdkdc0000gn/T//tqf40.elf.kOuEog.ltrans0.ltrans.o
 .rodata.short_d61
                0x000000000003ea9a        0xa /var/folders/sk/pxzc9l1n12xfhw7mpgdgdkdc0000gn/T//tqf40.elf.kOuEog.ltrans0.ltrans.o
 .rodata.long_d61
                0x000000000003eaa4       0x89 /var/folders/sk/pxzc9l1n12xfhw7mpgdgdkdc0000gn/T//tqf40.elf.kOuEog.ltrans0.ltrans.o
 .rodata.short_d60
                0x000000000003eb2d        0x9 /var/folders/sk/pxzc9l1n12xfhw7mpgdgdkdc0000gn/T//tqf40.elf.kOuEog.ltrans0.ltrans.o
 .rodata.long_d60
                0x000000000003eb36       0x77 /var/folders/sk/pxzc9l1n12xfhw7mpgdgdkdc0000gn/T//tqf40.elf.kOuEog.ltrans0.ltrans.o
 .rodata.short_d47
                0x000000000003ebad        0xe /var/folders/sk/pxzc9l1n12xfhw7mpgdgdkdc0000gn/T//tqf40.elf.kOuEog.ltrans0.ltrans.o
 .rodata.long_d47
                0x000000000003ebbb       0x2a /var/folders/sk/pxzc9l1n12xfhw7mpgdgdkdc0000gn/T//tqf40.elf.kOuEog.ltrans0.ltrans.o
 .rodata.short_d46
                0x000000000003ebe5        0xe /var/folders/sk/pxzc9l1n12xfhw7mpgdgdkdc0000gn/T//tqf40.elf.kOuEog.ltrans0.ltrans.o
 .rodata.long_d46
                0x000000000003ebf3       0x57 /var/folders/sk/pxzc9l1n12xfhw7mpgdgdkdc0000gn/T//tqf40.elf.kOuEog.ltrans0.ltrans.o
 .rodata.short_d45
                0x000000000003ec4a       0x10 /var/folders/sk/pxzc9l1n12xfhw7mpgdgdkdc0000gn/T//tqf40.elf.kOuEog.ltrans0.ltrans.o
 .rodata.long_d45
                0x000000000003ec5a       0x7d /var/folders/sk/pxzc9l1n12xfhw7mpgdgdkdc0000gn/T//tqf40.elf.kOuEog.ltrans0.ltrans.o
 .rodata.short_d44
                0x000000000003ecd7       0x12 /var/folders/sk/pxzc9l1n12xfhw7mpgdgdkdc0000gn/T//tqf40.elf.kOuEog.ltrans0.ltrans.o
 .rodata.long_d44
                0x000000000003ece9       0x44 /var/folders/sk/pxzc9l1n12xfhw7mpgdgdkdc0000gn/T//tqf40.elf.kOuEog.ltrans0.ltrans.o
 .rodata.short_d43
                0x000000000003ed2d        0xf /var/folders/sk/pxzc9l1n12xfhw7mpgdgdkdc0000gn/T//tqf40.elf.kOuEog.ltrans0.ltrans.o
 .rodata.long_d43
                0x000000000003ed3c       0x60 /var/folders/sk/pxzc9l1n12xfhw7mpgdgdkdc0000gn/T//tqf40.elf.kOuEog.ltrans0.ltrans.o
 .rodata.short_d42
                0x000000000003ed9c        0xa /var/folders/sk/pxzc9l1n12xfhw7mpgdgdkdc0000gn/T//tqf40.elf.kOuEog.ltrans0.ltrans.o
 .rodata.long_d42
                0x000000000003eda6       0x81 /var/folders/sk/pxzc9l1n12xfhw7mpgdgdkdc0000gn/T//tqf40.elf.kOuEog.ltrans0.ltrans.o
 .rodata.short_d41
                0x000000000003ee27        0xb /var/folders/sk/pxzc9l1n12xfhw7mpgdgdkdc0000gn/T//tqf40.elf.kOuEog.ltrans0.ltrans.o
 .rodata.long_d41
                0x000000000003ee32       0xa6 /var/folders/sk/pxzc9l1n12xfhw7mpgdgdkdc0000gn/T//tqf40.elf.kOuEog.ltrans0.ltrans.o
 .rodata.short_d40
                0x000000000003eed8        0xb /var/folders/sk/pxzc9l1n12xfhw7mpgdgdkdc0000gn/T//tqf40.elf.kOuEog.ltrans0.ltrans.o
 .rodata.long_d40
                0x000000000003eee3       0x40 /var/folders/sk/pxzc9l1n12xfhw7mpgdgdkdc0000gn/T//tqf40.elf.kOuEog.ltrans0.ltrans.o
 .rodata.short_d39
                0x000000000003ef23        0xd /var/folders/sk/pxzc9l1n12xfhw7mpgdgdkdc0000gn/T//tqf40.elf.kOuEog.ltrans0.ltrans.o
 .rodata.long_d39
                0x000000000003ef30       0x3a /var/folders/sk/pxzc9l1n12xfhw7mpgdgdkdc0000gn/T//tqf40.elf.kOuEog.ltrans0.ltrans.o
 .rodata.short_d38
                0x000000000003ef6a        0x6 /var/folders/sk/pxzc9l1n12xfhw7mpgdgdkdc0000gn/T//tqf40.elf.kOuEog.ltrans0.ltrans.o
 .rodata.long_d38
                0x000000000003ef70       0x5e /var/folders/sk/pxzc9l1n12xfhw7mpgdgdkdc0000gn/T//tqf40.elf.kOuEog.ltrans0.ltrans.o
 .rodata.short_d37
                0x000000000003efce       0x14 /var/folders/sk/pxzc9l1n12xfhw7mpgdgdkdc0000gn/T//tqf40.elf.kOuEog.ltrans0.ltrans.o
 .rodata.long_d37
                0x000000000003efe2       0x2f /var/folders/sk/pxzc9l1n12xfhw7mpgdgdkdc0000gn/T//tqf40.elf.kOuEog.ltrans0.ltrans.o
 .rodata.short_d36
                0x000000000003f011        0x9 /var/folders/sk/pxzc9l1n12xfhw7mpgdgdkdc0000gn/T//tqf40.elf.kOuEog.ltrans0.ltrans.o
 .rodata.long_d36
                0x000000000003f01a       0x3b /var/folders/sk/pxzc9l1n12xfhw7mpgdgdkdc0000gn/T//tqf40.elf.kOuEog.ltrans0.ltrans.o
 .rodata.short_d35
                0x000000000003f055        0xa /var/folders/sk/pxzc9l1n12xfhw7mpgdgdkdc0000gn/T//tqf40.elf.kOuEog.ltrans0.ltrans.o
 .rodata.long_d35
                0x000000000003f05f       0x25 /var/folders/sk/pxzc9l1n12xfhw7mpgdgdkdc0000gn/T//tqf40.elf.kOuEog.ltrans0.ltrans.o
 .rodata.short_d34
                0x000000000003f084        0x7 /var/folders/sk/pxzc9l1n12xfhw7mpgdgdkdc0000gn/T//tqf40.elf.kOuEog.ltrans0.ltrans.o
 .rodata.long_d34
                0x000000000003f08b       0x99 /var/folders/sk/pxzc9l1n12xfhw7mpgdgdkdc0000gn/T//tqf40.elf.kOuEog.ltrans0.ltrans.o
 .rodata.short_d33
                0x000000000003f124       0x10 /var/folders/sk/pxzc9l1n12xfhw7mpgdgdkdc0000gn/T//tqf40.elf.kOuEog.ltrans0.ltrans.o
 .rodata.long_d33
                0x000000000003f134       0x40 /var/folders/sk/pxzc9l1n12xfhw7mpgdgdkdc0000gn/T//tqf40.elf.kOuEog.ltrans0.ltrans.o
 .rodata.short_d32
                0x000000000003f174        0xb /var/folders/sk/pxzc9l1n12xfhw7mpgdgdkdc0000gn/T//tqf40.elf.kOuEog.ltrans0.ltrans.o
 .rodata.long_d32
                0x000000000003f17f       0x30 /var/folders/sk/pxzc9l1n12xfhw7mpgdgdkdc0000gn/T//tqf40.elf.kOuEog.ltrans0.ltrans.o
 .rodata.short_d31
                0x000000000003f1af        0xa /var/folders/sk/pxzc9l1n12xfhw7mpgdgdkdc0000gn/T//tqf40.elf.kOuEog.ltrans0.ltrans.o
 .rodata.long_d31
                0x000000000003f1b9       0x48 /var/folders/sk/pxzc9l1n12xfhw7mpgdgdkdc0000gn/T//tqf40.elf.kOuEog.ltrans0.ltrans.o
 .rodata.short_d30
                0x000000000003f201        0xa /var/folders/sk/pxzc9l1n12xfhw7mpgdgdkdc0000gn/T//tqf40.elf.kOuEog.ltrans0.ltrans.o
 .rodata.long_d30
                0x000000000003f20b       0x37 /var/folders/sk/pxzc9l1n12xfhw7mpgdgdkdc0000gn/T//tqf40.elf.kOuEog.ltrans0.ltrans.o
 .rodata.short_d22
                0x000000000003f242        0xc /var/folders/sk/pxzc9l1n12xfhw7mpgdgdkdc0000gn/T//tqf40.elf.kOuEog.ltrans0.ltrans.o
 .rodata.long_d22
                0x000000000003f24e       0x77 /var/folders/sk/pxzc9l1n12xfhw7mpgdgdkdc0000gn/T//tqf40.elf.kOuEog.ltrans0.ltrans.o
 .rodata.short_d21
                0x000000000003f2c5        0x6 /var/folders/sk/pxzc9l1n12xfhw7mpgdgdkdc0000gn/T//tqf40.elf.kOuEog.ltrans0.ltrans.o
 .rodata.long_d21
                0x000000000003f2cb       0x2f /var/folders/sk/pxzc9l1n12xfhw7mpgdgdkdc0000gn/T//tqf40.elf.kOuEog.ltrans0.ltrans.o
 .rodata.short_d20
                0x000000000003f2fa        0x6 /var/folders/sk/pxzc9l1n12xfhw7mpgdgdkdc0000gn/T//tqf40.elf.kOuEog.ltrans0.ltrans.o
 .rodata.long_d20
                0x000000000003f300       0x3b /var/folders/sk/pxzc9l1n12xfhw7mpgdgdkdc0000gn/T//tqf40.elf.kOuEog.ltrans0.ltrans.o
 .rodata.short_d19
                0x000000000003f33b        0x6 /var/folders/sk/pxzc9l1n12xfhw7mpgdgdkdc0000gn/T//tqf40.elf.kOuEog.ltrans0.ltrans.o
 .rodata.long_d19
                0x000000000003f341       0x4f /var/folders/sk/pxzc9l1n12xfhw7mpgdgdkdc0000gn/T//tqf40.elf.kOuEog.ltrans0.ltrans.o
 .rodata.short_d18
                0x000000000003f390       0x11 /var/folders/sk/pxzc9l1n12xfhw7mpgdgdkdc0000gn/T//tqf40.elf.kOuEog.ltrans0.ltrans.o
 .rodata.long_d18
                0x000000000003f3a1       0x4b /var/folders/sk/pxzc9l1n12xfhw7mpgdgdkdc0000gn/T//tqf40.elf.kOuEog.ltrans0.ltrans.o
 .rodata.short_d17
                0x000000000003f3ec        0x5 /var/folders/sk/pxzc9l1n12xfhw7mpgdgdkdc0000gn/T//tqf40.elf.kOuEog.ltrans0.ltrans.o
 .rodata.long_d17
                0x000000000003f3f1       0x2c /var/folders/sk/pxzc9l1n12xfhw7mpgdgdkdc0000gn/T//tqf40.elf.kOuEog.ltrans0.ltrans.o
 .rodata.short_d16
                0x000000000003f41d        0x7 /var/folders/sk/pxzc9l1n12xfhw7mpgdgdkdc0000gn/T//tqf40.elf.kOuEog.ltrans0.ltrans.o
 .rodata.long_d16
                0x000000000003f424       0x96 /var/folders/sk/pxzc9l1n12xfhw7mpgdgdkdc0000gn/T//tqf40.elf.kOuEog.ltrans0.ltrans.o
 .rodata.short_d14
                0x000000000003f4ba        0x5 /var/folders/sk/pxzc9l1n12xfhw7mpgdgdkdc0000gn/T//tqf40.elf.kOuEog.ltrans0.ltrans.o
 .rodata.long_d14
                0x000000000003f4bf       0x10 /var/folders/sk/pxzc9l1n12xfhw7mpgdgdkdc0000gn/T//tqf40.elf.kOuEog.ltrans0.ltrans.o
 .rodata.short_d13
                0x000000000003f4cf        0xc /var/folders/sk/pxzc9l1n12xfhw7mpgdgdkdc0000gn/T//tqf40.elf.kOuEog.ltrans0.ltrans.o
 .rodata.long_d13
                0x000000000003f4db       0x4b /var/folders/sk/pxzc9l1n12xfhw7mpgdgdkdc0000gn/T//tqf40.elf.kOuEog.ltrans0.ltrans.o
 .rodata.short_d12
                0x000000000003f526        0x9 /var/folders/sk/pxzc9l1n12xfhw7mpgdgdkdc0000gn/T//tqf40.elf.kOuEog.ltrans0.ltrans.o
 .rodata.long_d12
                0x000000000003f52f       0x87 /var/folders/sk/pxzc9l1n12xfhw7mpgdgdkdc0000gn/T//tqf40.elf.kOuEog.ltrans0.ltrans.o
 .rodata.short_d11
                0x000000000003f5b6        0x6 /var/folders/sk/pxzc9l1n12xfhw7mpgdgdkdc0000gn/T//tqf40.elf.kOuEog.ltrans0.ltrans.o
 .rodata.long_d11
                0x000000000003f5bc       0x35 /var/folders/sk/pxzc9l1n12xfhw7mpgdgdkdc0000gn/T//tqf40.elf.kOuEog.ltrans0.ltrans.o
 .rodata.short_d10
                0x000000000003f5f1        0xa /var/folders/sk/pxzc9l1n12xfhw7mpgdgdkdc0000gn/T//tqf40.elf.kOuEog.ltrans0.ltrans.o
 .rodata.long_d10
                0x000000000003f5fb       0xf4 /var/folders/sk/pxzc9l1n12xfhw7mpgdgdkdc0000gn/T//tqf40.elf.kOuEog.ltrans0.ltrans.o
 .rodata.short_d9
                0x000000000003f6ef        0xb /var/folders/sk/pxzc9l1n12xfhw7mpgdgdkdc0000gn/T//tqf40.elf.kOuEog.ltrans0.ltrans.o
 .rodata.long_d9
                0x000000000003f6fa       0x35 /var/folders/sk/pxzc9l1n12xfhw7mpgdgdkdc0000gn/T//tqf40.elf.kOuEog.ltrans0.ltrans.o
 .rodata.short_d8
                0x000000000003f72f        0xa /var/folders/sk/pxzc9l1n12xfhw7mpgdgdkdc0000gn/T//tqf40.elf.kOuEog.ltrans0.ltrans.o
 .rodata.long_d8
                0x000000000003f739       0x94 /var/folders/sk/pxzc9l1n12xfhw7mpgdgdkdc0000gn/T//tqf40.elf.kOuEog.ltrans0.ltrans.o
 .rodata.short_d7
                0x000000000003f7cd        0x9 /var/folders/sk/pxzc9l1n12xfhw7mpgdgdkdc0000gn/T//tqf40.elf.kOuEog.ltrans0.ltrans.o
 .rodata.long_d7
                0x000000000003f7d6       0x76 /var/folders/sk/pxzc9l1n12xfhw7mpgdgdkdc0000gn/T//tqf40.elf.kOuEog.ltrans0.ltrans.o
 .rodata.short_d6
                0x000000000003f84c        0x9 /var/folders/sk/pxzc9l1n12xfhw7mpgdgdkdc0000gn/T//tqf40.elf.kOuEog.ltrans0.ltrans.o
 .rodata.long_d6
                0x000000000003f855       0x2a /var/folders/sk/pxzc9l1n12xfhw7mpgdgdkdc0000gn/T//tqf40.elf.kOuEog.ltrans0.ltrans.o
 .rodata.short_d5
                0x000000000003f87f        0x7 /var/folders/sk/pxzc9l1n12xfhw7mpgdgdkdc0000gn/T//tqf40.elf.kOuEog.ltrans0.ltrans.o
 .rodata.long_d5
                0x000000000003f886       0x51 /var/folders/sk/pxzc9l1n12xfhw7mpgdgdkdc0000gn/T//tqf40.elf.kOuEog.ltrans0.ltrans.o
 .rodata.short_d4
                0x000000000003f8d7        0xd /var/folders/sk/pxzc9l1n12xfhw7mpgdgdkdc0000gn/T//tqf40.elf.kOuEog.ltrans0.ltrans.o
 .rodata.long_d4
                0x000000000003f8e4       0xd4 /var/folders/sk/pxzc9l1n12xfhw7mpgdgdkdc0000gn/T//tqf40.elf.kOuEog.ltrans0.ltrans.o
 .rodata.short_d3
                0x000000000003f9b8        0x7 /var/folders/sk/pxzc9l1n12xfhw7mpgdgdkdc0000gn/T//tqf40.elf.kOuEog.ltrans0.ltrans.o
 .rodata.long_d3
                0x000000000003f9bf       0x98 /var/folders/sk/pxzc9l1n12xfhw7mpgdgdkdc0000gn/T//tqf40.elf.kOuEog.ltrans0.ltrans.o
 .rodata.short_d2
                0x000000000003fa57        0x7 /var/folders/sk/pxzc9l1n12xfhw7mpgdgdkdc0000gn/T//tqf40.elf.kOuEog.ltrans0.ltrans.o
 .rodata.long_d2
                0x000000000003fa5e       0x8f /var/folders/sk/pxzc9l1n12xfhw7mpgdgdkdc0000gn/T//tqf40.elf.kOuEog.ltrans0.ltrans.o
 .rodata.short_d1
                0x000000000003faed        0xa /var/folders/sk/pxzc9l1n12xfhw7mpgdgdkdc0000gn/T//tqf40.elf.kOuEog.ltrans0.ltrans.o
 .rodata.long_d1
                0x000000000003faf7       0xff /var/folders/sk/pxzc9l1n12xfhw7mpgdgdkdc0000gn/T//tqf40.elf.kOuEog.ltrans0.ltrans.o
 .rodata.header
                0x000000000003fbf6       0x33 /var/folders/sk/pxzc9l1n12xfhw7mpgdgdkdc0000gn/T//tqf40.elf.kOuEog.ltrans0.ltrans.o
 *fill*         0x000000000003fc29        0x1 
 .rodata.dictionary
                0x000000000003fc2a      0xf32 /var/folders/sk/pxzc9l1n12xfhw7mpgdgdkdc0000gn/T//tqf40.elf.kOuEog.ltrans0.ltrans.o
 .rodata.message692
                0x0000000000040b5c       0x14 /var/folders/sk/pxzc9l1n12xfhw7mpgdgdkdc0000gn/T//tqf40.elf.kOuEog.ltrans0.ltrans.o
 .rodata.message691
                0x0000000000040b70       0x14 /var/folders/sk/pxzc9l1n12xfhw7mpgdgdkdc0000gn/T//tqf40.elf.kOuEog.ltrans0.ltrans.o
 .rodata.message689
                0x0000000000040b84       0x13 /var/folders/sk/pxzc9l1n12xfhw7mpgdgdkdc0000gn/T//tqf40.elf.kOuEog.ltrans0.ltrans.o
 .rodata.message693
                0x0000000000040b97        0xb /var/folders/sk/pxzc9l1n12xfhw7mpgdgdkdc0000gn/T//tqf40.elf.kOuEog.ltrans0.ltrans.o
 .rodata.message690
                0x0000000000040ba2       0x22 /var/folders/sk/pxzc9l1n12xfhw7mpgdgdkdc0000gn/T//tqf40.elf.kOuEog.ltrans0.ltrans.o
 .rodata.message705
                0x0000000000040bc4       0x34 /var/folders/sk/pxzc9l1n12xfhw7mpgdgdkdc0000gn/T//tqf40.elf.kOuEog.ltrans0.ltrans.o
 .rodata.exitrestart
                0x0000000000040bf8       0x1e /var/folders/sk/pxzc9l1n12xfhw7mpgdgdkdc0000gn/T//tqf40.elf.kOuEog.ltrans0.ltrans.o
 .rodata.message685
                0x0000000000040c16      0x22c /var/folders/sk/pxzc9l1n12xfhw7mpgdgdkdc0000gn/T//tqf40.elf.kOuEog.ltrans0.ltrans.o
 .rodata.message684
                0x0000000000040e42      0x109 /var/folders/sk/pxzc9l1n12xfhw7mpgdgdkdc0000gn/T//tqf40.elf.kOuEog.ltrans0.ltrans.o
 .rodata.message683
                0x0000000000040f4b       0x16 /var/folders/sk/pxzc9l1n12xfhw7mpgdgdkdc0000gn/T//tqf40.elf.kOuEog.ltrans0.ltrans.o
 .rodata.message688
                0x0000000000040f61       0x12 /var/folders/sk/pxzc9l1n12xfhw7mpgdgdkdc0000gn/T//tqf40.elf.kOuEog.ltrans0.ltrans.o
 .rodata.message687
                0x0000000000040f73       0x39 /var/folders/sk/pxzc9l1n12xfhw7mpgdgdkdc0000gn/T//tqf40.elf.kOuEog.ltrans0.ltrans.o
 .rodata.message686
                0x0000000000040fac       0x1d /var/folders/sk/pxzc9l1n12xfhw7mpgdgdkdc0000gn/T//tqf40.elf.kOuEog.ltrans0.ltrans.o
 .rodata.message673
                0x0000000000040fc9       0x33 /var/folders/sk/pxzc9l1n12xfhw7mpgdgdkdc0000gn/T//tqf40.elf.kOuEog.ltrans0.ltrans.o
 .rodata.message672
                0x0000000000040ffc       0x77 /var/folders/sk/pxzc9l1n12xfhw7mpgdgdkdc0000gn/T//tqf40.elf.kOuEog.ltrans0.ltrans.o
 .rodata.message679
                0x0000000000041073        0x7 /var/folders/sk/pxzc9l1n12xfhw7mpgdgdkdc0000gn/T//tqf40.elf.kOuEog.ltrans0.ltrans.o
 .rodata.message677
                0x000000000004107a        0x8 /var/folders/sk/pxzc9l1n12xfhw7mpgdgdkdc0000gn/T//tqf40.elf.kOuEog.ltrans0.ltrans.o
 .rodata.message678
                0x0000000000041082       0x1d /var/folders/sk/pxzc9l1n12xfhw7mpgdgdkdc0000gn/T//tqf40.elf.kOuEog.ltrans0.ltrans.o
 .rodata.message676
                0x000000000004109f       0x69 /var/folders/sk/pxzc9l1n12xfhw7mpgdgdkdc0000gn/T//tqf40.elf.kOuEog.ltrans0.ltrans.o
 .rodata.message675
                0x0000000000041108       0x4d /var/folders/sk/pxzc9l1n12xfhw7mpgdgdkdc0000gn/T//tqf40.elf.kOuEog.ltrans0.ltrans.o
 .rodata.message680
                0x0000000000041155        0xc /var/folders/sk/pxzc9l1n12xfhw7mpgdgdkdc0000gn/T//tqf40.elf.kOuEog.ltrans0.ltrans.o
 .rodata.message674
                0x0000000000041161       0x76 /var/folders/sk/pxzc9l1n12xfhw7mpgdgdkdc0000gn/T//tqf40.elf.kOuEog.ltrans0.ltrans.o
 .rodata.message627
                0x00000000000411d7       0x38 /var/folders/sk/pxzc9l1n12xfhw7mpgdgdkdc0000gn/T//tqf40.elf.kOuEog.ltrans0.ltrans.o
 .rodata.message630
                0x000000000004120f       0x3f /var/folders/sk/pxzc9l1n12xfhw7mpgdgdkdc0000gn/T//tqf40.elf.kOuEog.ltrans0.ltrans.o
 .rodata.message629
                0x000000000004124e       0x28 /var/folders/sk/pxzc9l1n12xfhw7mpgdgdkdc0000gn/T//tqf40.elf.kOuEog.ltrans0.ltrans.o
 .rodata.message642
                0x0000000000041276       0x1a /var/folders/sk/pxzc9l1n12xfhw7mpgdgdkdc0000gn/T//tqf40.elf.kOuEog.ltrans0.ltrans.o
 .rodata.message641
                0x0000000000041290       0x3a /var/folders/sk/pxzc9l1n12xfhw7mpgdgdkdc0000gn/T//tqf40.elf.kOuEog.ltrans0.ltrans.o
 .rodata.message909
                0x00000000000412ca       0x15 /var/folders/sk/pxzc9l1n12xfhw7mpgdgdkdc0000gn/T//tqf40.elf.kOuEog.ltrans0.ltrans.o
 .rodata.message908
                0x00000000000412df       0x13 /var/folders/sk/pxzc9l1n12xfhw7mpgdgdkdc0000gn/T//tqf40.elf.kOuEog.ltrans0.ltrans.o
 .rodata.message639
                0x00000000000412f2       0x17 /var/folders/sk/pxzc9l1n12xfhw7mpgdgdkdc0000gn/T//tqf40.elf.kOuEog.ltrans0.ltrans.o
 .rodata.message640
                0x0000000000041309       0x1d /var/folders/sk/pxzc9l1n12xfhw7mpgdgdkdc0000gn/T//tqf40.elf.kOuEog.ltrans0.ltrans.o
 .rodata.message631
                0x0000000000041326       0x13 /var/folders/sk/pxzc9l1n12xfhw7mpgdgdkdc0000gn/T//tqf40.elf.kOuEog.ltrans0.ltrans.o
 .rodata.message617
                0x0000000000041339       0x47 /var/folders/sk/pxzc9l1n12xfhw7mpgdgdkdc0000gn/T//tqf40.elf.kOuEog.ltrans0.ltrans.o
 .rodata.message671
                0x0000000000041380       0x4a /var/folders/sk/pxzc9l1n12xfhw7mpgdgdkdc0000gn/T//tqf40.elf.kOuEog.ltrans0.ltrans.o
 .rodata.message659
                0x00000000000413ca       0x25 /var/folders/sk/pxzc9l1n12xfhw7mpgdgdkdc0000gn/T//tqf40.elf.kOuEog.ltrans0.ltrans.o
 .rodata.message666
                0x00000000000413ef       0x27 /var/folders/sk/pxzc9l1n12xfhw7mpgdgdkdc0000gn/T//tqf40.elf.kOuEog.ltrans0.ltrans.o
 .rodata.message658
                0x0000000000041416       0x21 /var/folders/sk/pxzc9l1n12xfhw7mpgdgdkdc0000gn/T//tqf40.elf.kOuEog.ltrans0.ltrans.o
 .rodata.message656
                0x0000000000041437       0x2a /var/folders/sk/pxzc9l1n12xfhw7mpgdgdkdc0000gn/T//tqf40.elf.kOuEog.ltrans0.ltrans.o
 .rodata.message625
                0x0000000000041461       0x32 /var/folders/sk/pxzc9l1n12xfhw7mpgdgdkdc0000gn/T//tqf40.elf.kOuEog.ltrans0.ltrans.o
 .rodata.message624
                0x0000000000041493       0x1d /var/folders/sk/pxzc9l1n12xfhw7mpgdgdkdc0000gn/T//tqf40.elf.kOuEog.ltrans0.ltrans.o
 .rodata.message623
                0x00000000000414b0        0xc /var/folders/sk/pxzc9l1n12xfhw7mpgdgdkdc0000gn/T//tqf40.elf.kOuEog.ltrans0.ltrans.o
 .rodata.message665
                0x00000000000414bc       0x26 /var/folders/sk/pxzc9l1n12xfhw7mpgdgdkdc0000gn/T//tqf40.elf.kOuEog.ltrans0.ltrans.o
 .rodata.message664
                0x00000000000414e2       0x19 /var/folders/sk/pxzc9l1n12xfhw7mpgdgdkdc0000gn/T//tqf40.elf.kOuEog.ltrans0.ltrans.o
 .rodata.message663
                0x00000000000414fb       0x40 /var/folders/sk/pxzc9l1n12xfhw7mpgdgdkdc0000gn/T//tqf40.elf.kOuEog.ltrans0.ltrans.o
 .rodata.message662
                0x000000000004153b       0x24 /var/folders/sk/pxzc9l1n12xfhw7mpgdgdkdc0000gn/T//tqf40.elf.kOuEog.ltrans0.ltrans.o
 .rodata.message661
                0x000000000004155f       0x46 /var/folders/sk/pxzc9l1n12xfhw7mpgdgdkdc0000gn/T//tqf40.elf.kOuEog.ltrans0.ltrans.o
 .rodata.message654
                0x00000000000415a5       0x13 /var/folders/sk/pxzc9l1n12xfhw7mpgdgdkdc0000gn/T//tqf40.elf.kOuEog.ltrans0.ltrans.o
 .rodata.message619
                0x00000000000415b8       0x61 /var/folders/sk/pxzc9l1n12xfhw7mpgdgdkdc0000gn/T//tqf40.elf.kOuEog.ltrans0.ltrans.o
 .rodata.message618
                0x0000000000041619       0x57 /var/folders/sk/pxzc9l1n12xfhw7mpgdgdkdc0000gn/T//tqf40.elf.kOuEog.ltrans0.ltrans.o
 .rodata.message703
                0x0000000000041670       0x24 /var/folders/sk/pxzc9l1n12xfhw7mpgdgdkdc0000gn/T//tqf40.elf.kOuEog.ltrans0.ltrans.o
 .rodata.message660
                0x0000000000041694       0x57 /var/folders/sk/pxzc9l1n12xfhw7mpgdgdkdc0000gn/T//tqf40.elf.kOuEog.ltrans0.ltrans.o
 .rodata.message655
                0x00000000000416eb        0xb /var/folders/sk/pxzc9l1n12xfhw7mpgdgdkdc0000gn/T//tqf40.elf.kOuEog.ltrans0.ltrans.o
 .rodata.message653
                0x00000000000416f6        0xd /var/folders/sk/pxzc9l1n12xfhw7mpgdgdkdc0000gn/T//tqf40.elf.kOuEog.ltrans0.ltrans.o
 .rodata.message652
                0x0000000000041703        0xf /var/folders/sk/pxzc9l1n12xfhw7mpgdgdkdc0000gn/T//tqf40.elf.kOuEog.ltrans0.ltrans.o
 .rodata.message651
                0x0000000000041712       0x39 /var/folders/sk/pxzc9l1n12xfhw7mpgdgdkdc0000gn/T//tqf40.elf.kOuEog.ltrans0.ltrans.o
 .rodata.message648
                0x000000000004174b       0x2f /var/folders/sk/pxzc9l1n12xfhw7mpgdgdkdc0000gn/T//tqf40.elf.kOuEog.ltrans0.ltrans.o
 .rodata.message610
                0x000000000004177a       0x4e /var/folders/sk/pxzc9l1n12xfhw7mpgdgdkdc0000gn/T//tqf40.elf.kOuEog.ltrans0.ltrans.o
 .rodata.message635
                0x00000000000417c8       0x4d /var/folders/sk/pxzc9l1n12xfhw7mpgdgdkdc0000gn/T//tqf40.elf.kOuEog.ltrans0.ltrans.o
 .rodata.message634
                0x0000000000041815       0x13 /var/folders/sk/pxzc9l1n12xfhw7mpgdgdkdc0000gn/T//tqf40.elf.kOuEog.ltrans0.ltrans.o
 .rodata.message633
                0x0000000000041828       0x39 /var/folders/sk/pxzc9l1n12xfhw7mpgdgdkdc0000gn/T//tqf40.elf.kOuEog.ltrans0.ltrans.o
 .rodata.message611
                0x0000000000041861       0x1d /var/folders/sk/pxzc9l1n12xfhw7mpgdgdkdc0000gn/T//tqf40.elf.kOuEog.ltrans0.ltrans.o
 .rodata.message647
                0x000000000004187e       0x12 /var/folders/sk/pxzc9l1n12xfhw7mpgdgdkdc0000gn/T//tqf40.elf.kOuEog.ltrans0.ltrans.o
 .rodata.message607
                0x0000000000041890       0x55 /var/folders/sk/pxzc9l1n12xfhw7mpgdgdkdc0000gn/T//tqf40.elf.kOuEog.ltrans0.ltrans.o
 .rodata.message620
                0x00000000000418e5       0x1f /var/folders/sk/pxzc9l1n12xfhw7mpgdgdkdc0000gn/T//tqf40.elf.kOuEog.ltrans0.ltrans.o
 .rodata.message616
                0x0000000000041904       0x20 /var/folders/sk/pxzc9l1n12xfhw7mpgdgdkdc0000gn/T//tqf40.elf.kOuEog.ltrans0.ltrans.o
 .rodata.message606
                0x0000000000041924       0x3d /var/folders/sk/pxzc9l1n12xfhw7mpgdgdkdc0000gn/T//tqf40.elf.kOuEog.ltrans0.ltrans.o
 .rodata.message645
                0x0000000000041961       0x1b /var/folders/sk/pxzc9l1n12xfhw7mpgdgdkdc0000gn/T//tqf40.elf.kOuEog.ltrans0.ltrans.o
 .rodata.message600
                0x000000000004197c       0x2c /var/folders/sk/pxzc9l1n12xfhw7mpgdgdkdc0000gn/T//tqf40.elf.kOuEog.ltrans0.ltrans.o
 .rodata.message644
                0x00000000000419a8       0x24 /var/folders/sk/pxzc9l1n12xfhw7mpgdgdkdc0000gn/T//tqf40.elf.kOuEog.ltrans0.ltrans.o
 .rodata.message615
                0x00000000000419cc       0x21 /var/folders/sk/pxzc9l1n12xfhw7mpgdgdkdc0000gn/T//tqf40.elf.kOuEog.ltrans0.ltrans.o
 .rodata.message614
                0x00000000000419ed       0x46 /var/folders/sk/pxzc9l1n12xfhw7mpgdgdkdc0000gn/T//tqf40.elf.kOuEog.ltrans0.ltrans.o
 .rodata.message906
                0x0000000000041a33       0x14 /var/folders/sk/pxzc9l1n12xfhw7mpgdgdkdc0000gn/T//tqf40.elf.kOuEog.ltrans0.ltrans.o
 .rodata.message283
                0x0000000000041a47        0x5 /var/folders/sk/pxzc9l1n12xfhw7mpgdgdkdc0000gn/T//tqf40.elf.kOuEog.ltrans0.ltrans.o
 .rodata.message282
                0x0000000000041a4c       0x37 /var/folders/sk/pxzc9l1n12xfhw7mpgdgdkdc0000gn/T//tqf40.elf.kOuEog.ltrans0.ltrans.o
 .rodata.message304
                0x0000000000041a83       0x1c /var/folders/sk/pxzc9l1n12xfhw7mpgdgdkdc0000gn/T//tqf40.elf.kOuEog.ltrans0.ltrans.o
 .rodata.message303
                0x0000000000041a9f       0x58 /var/folders/sk/pxzc9l1n12xfhw7mpgdgdkdc0000gn/T//tqf40.elf.kOuEog.ltrans0.ltrans.o
 .rodata.message259
                0x0000000000041af7       0x1f /var/folders/sk/pxzc9l1n12xfhw7mpgdgdkdc0000gn/T//tqf40.elf.kOuEog.ltrans0.ltrans.o
 .rodata.message248
                0x0000000000041b16      0x2e3 /var/folders/sk/pxzc9l1n12xfhw7mpgdgdkdc0000gn/T//tqf40.elf.kOuEog.ltrans0.ltrans.o
 .rodata.message247
                0x0000000000041df9      0x1ef /var/folders/sk/pxzc9l1n12xfhw7mpgdgdkdc0000gn/T//tqf40.elf.kOuEog.ltrans0.ltrans.o
 .rodata.message242
                0x0000000000041fe8       0xd0 /var/folders/sk/pxzc9l1n12xfhw7mpgdgdkdc0000gn/T//tqf40.elf.kOuEog.ltrans0.ltrans.o
 .rodata.message311
                0x00000000000420b8       0x1e /var/folders/sk/pxzc9l1n12xfhw7mpgdgdkdc0000gn/T//tqf40.elf.kOuEog.ltrans0.ltrans.o
 .rodata.message253
                0x00000000000420d6       0x6c /var/folders/sk/pxzc9l1n12xfhw7mpgdgdkdc0000gn/T//tqf40.elf.kOuEog.ltrans0.ltrans.o
 .rodata.message254
                0x0000000000042142       0x53 /var/folders/sk/pxzc9l1n12xfhw7mpgdgdkdc0000gn/T//tqf40.elf.kOuEog.ltrans0.ltrans.o
 .rodata.message252
                0x0000000000042195       0x35 /var/folders/sk/pxzc9l1n12xfhw7mpgdgdkdc0000gn/T//tqf40.elf.kOuEog.ltrans0.ltrans.o
 .rodata.message306
                0x00000000000421ca       0x1e /var/folders/sk/pxzc9l1n12xfhw7mpgdgdkdc0000gn/T//tqf40.elf.kOuEog.ltrans0.ltrans.o
 .rodata.message285
                0x00000000000421e8       0x4c /var/folders/sk/pxzc9l1n12xfhw7mpgdgdkdc0000gn/T//tqf40.elf.kOuEog.ltrans0.ltrans.o
 .rodata.message284
                0x0000000000042234       0x5b /var/folders/sk/pxzc9l1n12xfhw7mpgdgdkdc0000gn/T//tqf40.elf.kOuEog.ltrans0.ltrans.o
 .rodata.message273
                0x000000000004228f       0x11 /var/folders/sk/pxzc9l1n12xfhw7mpgdgdkdc0000gn/T//tqf40.elf.kOuEog.ltrans0.ltrans.o
 .rodata.message272
                0x00000000000422a0        0xe /var/folders/sk/pxzc9l1n12xfhw7mpgdgdkdc0000gn/T//tqf40.elf.kOuEog.ltrans0.ltrans.o
 .rodata.message271
                0x00000000000422ae       0x27 /var/folders/sk/pxzc9l1n12xfhw7mpgdgdkdc0000gn/T//tqf40.elf.kOuEog.ltrans0.ltrans.o
 .rodata.message270
                0x00000000000422d5       0x1b /var/folders/sk/pxzc9l1n12xfhw7mpgdgdkdc0000gn/T//tqf40.elf.kOuEog.ltrans0.ltrans.o
 .rodata.message269
                0x00000000000422f0       0x24 /var/folders/sk/pxzc9l1n12xfhw7mpgdgdkdc0000gn/T//tqf40.elf.kOuEog.ltrans0.ltrans.o
 .rodata.message268
                0x0000000000042314       0x17 /var/folders/sk/pxzc9l1n12xfhw7mpgdgdkdc0000gn/T//tqf40.elf.kOuEog.ltrans0.ltrans.o
 .rodata.message310
                0x000000000004232b       0x39 /var/folders/sk/pxzc9l1n12xfhw7mpgdgdkdc0000gn/T//tqf40.elf.kOuEog.ltrans0.ltrans.o
 .rodata.message246
                0x0000000000042364      0x155 /var/folders/sk/pxzc9l1n12xfhw7mpgdgdkdc0000gn/T//tqf40.elf.kOuEog.ltrans0.ltrans.o
 .rodata.message245
                0x00000000000424b9      0x1d0 /var/folders/sk/pxzc9l1n12xfhw7mpgdgdkdc0000gn/T//tqf40.elf.kOuEog.ltrans0.ltrans.o
 .rodata.message914
                0x0000000000042689       0x12 /var/folders/sk/pxzc9l1n12xfhw7mpgdgdkdc0000gn/T//tqf40.elf.kOuEog.ltrans0.ltrans.o
 .rodata.message260
                0x000000000004269b      0x167 /var/folders/sk/pxzc9l1n12xfhw7mpgdgdkdc0000gn/T//tqf40.elf.kOuEog.ltrans0.ltrans.o
 .rodata.message288
                0x0000000000042802       0x13 /var/folders/sk/pxzc9l1n12xfhw7mpgdgdkdc0000gn/T//tqf40.elf.kOuEog.ltrans0.ltrans.o
 .rodata.message287
                0x0000000000042815       0x32 /var/folders/sk/pxzc9l1n12xfhw7mpgdgdkdc0000gn/T//tqf40.elf.kOuEog.ltrans0.ltrans.o
 .rodata.message286
                0x0000000000042847       0x12 /var/folders/sk/pxzc9l1n12xfhw7mpgdgdkdc0000gn/T//tqf40.elf.kOuEog.ltrans0.ltrans.o
 .rodata.message302
                0x0000000000042859       0x29 /var/folders/sk/pxzc9l1n12xfhw7mpgdgdkdc0000gn/T//tqf40.elf.kOuEog.ltrans0.ltrans.o
 .rodata.message297
                0x0000000000042882       0x24 /var/folders/sk/pxzc9l1n12xfhw7mpgdgdkdc0000gn/T//tqf40.elf.kOuEog.ltrans0.ltrans.o
 .rodata.message296
                0x00000000000428a6       0x25 /var/folders/sk/pxzc9l1n12xfhw7mpgdgdkdc0000gn/T//tqf40.elf.kOuEog.ltrans0.ltrans.o
 .rodata.message295
                0x00000000000428cb       0x3d /var/folders/sk/pxzc9l1n12xfhw7mpgdgdkdc0000gn/T//tqf40.elf.kOuEog.ltrans0.ltrans.o
 .rodata.message294
                0x0000000000042908       0x45 /var/folders/sk/pxzc9l1n12xfhw7mpgdgdkdc0000gn/T//tqf40.elf.kOuEog.ltrans0.ltrans.o
 .rodata.message293
                0x000000000004294d       0x20 /var/folders/sk/pxzc9l1n12xfhw7mpgdgdkdc0000gn/T//tqf40.elf.kOuEog.ltrans0.ltrans.o
 .rodata.message292
                0x000000000004296d       0x14 /var/folders/sk/pxzc9l1n12xfhw7mpgdgdkdc0000gn/T//tqf40.elf.kOuEog.ltrans0.ltrans.o
 .rodata.message275
                0x0000000000042981       0x60 /var/folders/sk/pxzc9l1n12xfhw7mpgdgdkdc0000gn/T//tqf40.elf.kOuEog.ltrans0.ltrans.o
 .rodata.message274
                0x00000000000429e1       0x21 /var/folders/sk/pxzc9l1n12xfhw7mpgdgdkdc0000gn/T//tqf40.elf.kOuEog.ltrans0.ltrans.o
 .rodata.message267
                0x0000000000042a02       0x1d /var/folders/sk/pxzc9l1n12xfhw7mpgdgdkdc0000gn/T//tqf40.elf.kOuEog.ltrans0.ltrans.o
 .rodata.message266
                0x0000000000042a1f       0x3e /var/folders/sk/pxzc9l1n12xfhw7mpgdgdkdc0000gn/T//tqf40.elf.kOuEog.ltrans0.ltrans.o
 .rodata.message305
                0x0000000000042a5d       0x67 /var/folders/sk/pxzc9l1n12xfhw7mpgdgdkdc0000gn/T//tqf40.elf.kOuEog.ltrans0.ltrans.o
 .rodata.message250
                0x0000000000042ac4       0x75 /var/folders/sk/pxzc9l1n12xfhw7mpgdgdkdc0000gn/T//tqf40.elf.kOuEog.ltrans0.ltrans.o
 .rodata.message256
                0x0000000000042b39       0x54 /var/folders/sk/pxzc9l1n12xfhw7mpgdgdkdc0000gn/T//tqf40.elf.kOuEog.ltrans0.ltrans.o
 .rodata.message281
                0x0000000000042b8d       0x14 /var/folders/sk/pxzc9l1n12xfhw7mpgdgdkdc0000gn/T//tqf40.elf.kOuEog.ltrans0.ltrans.o
 .rodata.message278
                0x0000000000042ba1       0x1a /var/folders/sk/pxzc9l1n12xfhw7mpgdgdkdc0000gn/T//tqf40.elf.kOuEog.ltrans0.ltrans.o
 .rodata.message277
                0x0000000000042bbb        0x9 /var/folders/sk/pxzc9l1n12xfhw7mpgdgdkdc0000gn/T//tqf40.elf.kOuEog.ltrans0.ltrans.o
 .rodata.message276
                0x0000000000042bc4       0x33 /var/folders/sk/pxzc9l1n12xfhw7mpgdgdkdc0000gn/T//tqf40.elf.kOuEog.ltrans0.ltrans.o
 .rodata.message264
                0x0000000000042bf7       0x2d /var/folders/sk/pxzc9l1n12xfhw7mpgdgdkdc0000gn/T//tqf40.elf.kOuEog.ltrans0.ltrans.o
 .rodata.message262
                0x0000000000042c24       0x5a /var/folders/sk/pxzc9l1n12xfhw7mpgdgdkdc0000gn/T//tqf40.elf.kOuEog.ltrans0.ltrans.o
 .rodata.message263
                0x0000000000042c7e       0x18 /var/folders/sk/pxzc9l1n12xfhw7mpgdgdkdc0000gn/T//tqf40.elf.kOuEog.ltrans0.ltrans.o
 .rodata.message236
                0x0000000000042c96       0x5d /var/folders/sk/pxzc9l1n12xfhw7mpgdgdkdc0000gn/T//tqf40.elf.kOuEog.ltrans0.ltrans.o
 .rodata.message100
                0x0000000000042cf3        0x7 /var/folders/sk/pxzc9l1n12xfhw7mpgdgdkdc0000gn/T//tqf40.elf.kOuEog.ltrans0.ltrans.o
 .rodata.message65
                0x0000000000042cfa       0x38 /var/folders/sk/pxzc9l1n12xfhw7mpgdgdkdc0000gn/T//tqf40.elf.kOuEog.ltrans0.ltrans.o
 .rodata.message63
                0x0000000000042d32       0x94 /var/folders/sk/pxzc9l1n12xfhw7mpgdgdkdc0000gn/T//tqf40.elf.kOuEog.ltrans0.ltrans.o
 .rodata.message110
                0x0000000000042dc6       0x2b /var/folders/sk/pxzc9l1n12xfhw7mpgdgdkdc0000gn/T//tqf40.elf.kOuEog.ltrans0.ltrans.o
 .rodata.message904
                0x0000000000042df1       0x63 /var/folders/sk/pxzc9l1n12xfhw7mpgdgdkdc0000gn/T//tqf40.elf.kOuEog.ltrans0.ltrans.o
 .rodata.message905
                0x0000000000042e54       0x1b /var/folders/sk/pxzc9l1n12xfhw7mpgdgdkdc0000gn/T//tqf40.elf.kOuEog.ltrans0.ltrans.o
 .rodata.message21
                0x0000000000042e6f       0x62 /var/folders/sk/pxzc9l1n12xfhw7mpgdgdkdc0000gn/T//tqf40.elf.kOuEog.ltrans0.ltrans.o
 .rodata.message20
                0x0000000000042ed1       0x4e /var/folders/sk/pxzc9l1n12xfhw7mpgdgdkdc0000gn/T//tqf40.elf.kOuEog.ltrans0.ltrans.o
 .rodata.message18
                0x0000000000042f1f       0x31 /var/folders/sk/pxzc9l1n12xfhw7mpgdgdkdc0000gn/T//tqf40.elf.kOuEog.ltrans0.ltrans.o
 .rodata.message17
                0x0000000000042f50       0xad /var/folders/sk/pxzc9l1n12xfhw7mpgdgdkdc0000gn/T//tqf40.elf.kOuEog.ltrans0.ltrans.o
 .rodata.message98
                0x0000000000042ffd       0x69 /var/folders/sk/pxzc9l1n12xfhw7mpgdgdkdc0000gn/T//tqf40.elf.kOuEog.ltrans0.ltrans.o
 .rodata.message15
                0x0000000000043066       0x48 /var/folders/sk/pxzc9l1n12xfhw7mpgdgdkdc0000gn/T//tqf40.elf.kOuEog.ltrans0.ltrans.o
 .rodata.message99
                0x00000000000430ae       0x2f /var/folders/sk/pxzc9l1n12xfhw7mpgdgdkdc0000gn/T//tqf40.elf.kOuEog.ltrans0.ltrans.o
 .rodata.message95
                0x00000000000430dd       0x37 /var/folders/sk/pxzc9l1n12xfhw7mpgdgdkdc0000gn/T//tqf40.elf.kOuEog.ltrans0.ltrans.o
 .rodata.message94
                0x0000000000043114       0x1e /var/folders/sk/pxzc9l1n12xfhw7mpgdgdkdc0000gn/T//tqf40.elf.kOuEog.ltrans0.ltrans.o
 .rodata.message103
                0x0000000000043132       0x17 /var/folders/sk/pxzc9l1n12xfhw7mpgdgdkdc0000gn/T//tqf40.elf.kOuEog.ltrans0.ltrans.o
 .rodata.message31
                0x0000000000043149       0x2c /var/folders/sk/pxzc9l1n12xfhw7mpgdgdkdc0000gn/T//tqf40.elf.kOuEog.ltrans0.ltrans.o
 .rodata.message59
                0x0000000000043175       0x99 /var/folders/sk/pxzc9l1n12xfhw7mpgdgdkdc0000gn/T//tqf40.elf.kOuEog.ltrans0.ltrans.o
 .rodata.message60
                0x000000000004320e       0x20 /var/folders/sk/pxzc9l1n12xfhw7mpgdgdkdc0000gn/T//tqf40.elf.kOuEog.ltrans0.ltrans.o
 .rodata.message58
                0x000000000004322e       0x1d /var/folders/sk/pxzc9l1n12xfhw7mpgdgdkdc0000gn/T//tqf40.elf.kOuEog.ltrans0.ltrans.o
 .rodata.message53
                0x000000000004324b       0x2d /var/folders/sk/pxzc9l1n12xfhw7mpgdgdkdc0000gn/T//tqf40.elf.kOuEog.ltrans0.ltrans.o
 .rodata.message106
                0x0000000000043278       0x1e /var/folders/sk/pxzc9l1n12xfhw7mpgdgdkdc0000gn/T//tqf40.elf.kOuEog.ltrans0.ltrans.o
 .rodata.message48
                0x0000000000043296       0xdf /var/folders/sk/pxzc9l1n12xfhw7mpgdgdkdc0000gn/T//tqf40.elf.kOuEog.ltrans0.ltrans.o
 .rodata.message47
                0x0000000000043375       0x13 /var/folders/sk/pxzc9l1n12xfhw7mpgdgdkdc0000gn/T//tqf40.elf.kOuEog.ltrans0.ltrans.o
 .rodata.message46
                0x0000000000043388       0x57 /var/folders/sk/pxzc9l1n12xfhw7mpgdgdkdc0000gn/T//tqf40.elf.kOuEog.ltrans0.ltrans.o
 .rodata.message89
                0x00000000000433df        0xe /var/folders/sk/pxzc9l1n12xfhw7mpgdgdkdc0000gn/T//tqf40.elf.kOuEog.ltrans0.ltrans.o
 .rodata.message88
                0x00000000000433ed       0x36 /var/folders/sk/pxzc9l1n12xfhw7mpgdgdkdc0000gn/T//tqf40.elf.kOuEog.ltrans0.ltrans.o
 .rodata.message87
                0x0000000000043423       0x2d /var/folders/sk/pxzc9l1n12xfhw7mpgdgdkdc0000gn/T//tqf40.elf.kOuEog.ltrans0.ltrans.o
 .rodata.message86
                0x0000000000043450       0x6d /var/folders/sk/pxzc9l1n12xfhw7mpgdgdkdc0000gn/T//tqf40.elf.kOuEog.ltrans0.ltrans.o
 .rodata.message85
                0x00000000000434bd       0x21 /var/folders/sk/pxzc9l1n12xfhw7mpgdgdkdc0000gn/T//tqf40.elf.kOuEog.ltrans0.ltrans.o
 .rodata.message84
                0x00000000000434de       0x22 /var/folders/sk/pxzc9l1n12xfhw7mpgdgdkdc0000gn/T//tqf40.elf.kOuEog.ltrans0.ltrans.o
 .rodata.message83
                0x0000000000043500       0x6b /var/folders/sk/pxzc9l1n12xfhw7mpgdgdkdc0000gn/T//tqf40.elf.kOuEog.ltrans0.ltrans.o
 .rodata.message82
                0x000000000004356b       0x2f /var/folders/sk/pxzc9l1n12xfhw7mpgdgdkdc0000gn/T//tqf40.elf.kOuEog.ltrans0.ltrans.o
 .rodata.message81
                0x000000000004359a       0x50 /var/folders/sk/pxzc9l1n12xfhw7mpgdgdkdc0000gn/T//tqf40.elf.kOuEog.ltrans0.ltrans.o
 .rodata.message80
                0x00000000000435ea       0x33 /var/folders/sk/pxzc9l1n12xfhw7mpgdgdkdc0000gn/T//tqf40.elf.kOuEog.ltrans0.ltrans.o
 .rodata.message79
                0x000000000004361d       0x29 /var/folders/sk/pxzc9l1n12xfhw7mpgdgdkdc0000gn/T//tqf40.elf.kOuEog.ltrans0.ltrans.o
 .rodata.message41
                0x0000000000043646       0x3c /var/folders/sk/pxzc9l1n12xfhw7mpgdgdkdc0000gn/T//tqf40.elf.kOuEog.ltrans0.ltrans.o
 .rodata.message14
                0x0000000000043682       0xdd /var/folders/sk/pxzc9l1n12xfhw7mpgdgdkdc0000gn/T//tqf40.elf.kOuEog.ltrans0.ltrans.o
 .rodata.message75
                0x000000000004375f       0x1a /var/folders/sk/pxzc9l1n12xfhw7mpgdgdkdc0000gn/T//tqf40.elf.kOuEog.ltrans0.ltrans.o
 .rodata.message74
                0x0000000000043779       0x35 /var/folders/sk/pxzc9l1n12xfhw7mpgdgdkdc0000gn/T//tqf40.elf.kOuEog.ltrans0.ltrans.o
 .rodata.message73
                0x00000000000437ae       0x4d /var/folders/sk/pxzc9l1n12xfhw7mpgdgdkdc0000gn/T//tqf40.elf.kOuEog.ltrans0.ltrans.o
 .rodata.message78
                0x00000000000437fb       0x75 /var/folders/sk/pxzc9l1n12xfhw7mpgdgdkdc0000gn/T//tqf40.elf.kOuEog.ltrans0.ltrans.o
 .rodata.message64
                0x0000000000043870       0x22 /var/folders/sk/pxzc9l1n12xfhw7mpgdgdkdc0000gn/T//tqf40.elf.kOuEog.ltrans0.ltrans.o
 .rodata.message33
                0x0000000000043892       0x94 /var/folders/sk/pxzc9l1n12xfhw7mpgdgdkdc0000gn/T//tqf40.elf.kOuEog.ltrans0.ltrans.o
 .rodata.message77
                0x0000000000043926       0x1c /var/folders/sk/pxzc9l1n12xfhw7mpgdgdkdc0000gn/T//tqf40.elf.kOuEog.ltrans0.ltrans.o
 .rodata.message72
                0x0000000000043942       0x2f /var/folders/sk/pxzc9l1n12xfhw7mpgdgdkdc0000gn/T//tqf40.elf.kOuEog.ltrans0.ltrans.o
 .rodata.message76
                0x0000000000043971       0x14 /var/folders/sk/pxzc9l1n12xfhw7mpgdgdkdc0000gn/T//tqf40.elf.kOuEog.ltrans0.ltrans.o
 .rodata.message71
                0x0000000000043985        0xb /var/folders/sk/pxzc9l1n12xfhw7mpgdgdkdc0000gn/T//tqf40.elf.kOuEog.ltrans0.ltrans.o
 .rodata.message70
                0x0000000000043990       0x20 /var/folders/sk/pxzc9l1n12xfhw7mpgdgdkdc0000gn/T//tqf40.elf.kOuEog.ltrans0.ltrans.o
 .rodata.message69
                0x00000000000439b0       0x37 /var/folders/sk/pxzc9l1n12xfhw7mpgdgdkdc0000gn/T//tqf40.elf.kOuEog.ltrans0.ltrans.o
 .rodata.message12
                0x00000000000439e7       0x54 /var/folders/sk/pxzc9l1n12xfhw7mpgdgdkdc0000gn/T//tqf40.elf.kOuEog.ltrans0.ltrans.o
 .rodata.message56
                0x0000000000043a3b       0xa3 /var/folders/sk/pxzc9l1n12xfhw7mpgdgdkdc0000gn/T//tqf40.elf.kOuEog.ltrans0.ltrans.o
 .rodata.message11
                0x0000000000043ade       0x72 /var/folders/sk/pxzc9l1n12xfhw7mpgdgdkdc0000gn/T//tqf40.elf.kOuEog.ltrans0.ltrans.o
 .rodata.message62
                0x0000000000043b50       0x3d /var/folders/sk/pxzc9l1n12xfhw7mpgdgdkdc0000gn/T//tqf40.elf.kOuEog.ltrans0.ltrans.o
 .rodata.message61
                0x0000000000043b8d      0x11f /var/folders/sk/pxzc9l1n12xfhw7mpgdgdkdc0000gn/T//tqf40.elf.kOuEog.ltrans0.ltrans.o
 .rodata.message68
                0x0000000000043cac       0x4a /var/folders/sk/pxzc9l1n12xfhw7mpgdgdkdc0000gn/T//tqf40.elf.kOuEog.ltrans0.ltrans.o
 .rodata.message67
                0x0000000000043cf6       0x4c /var/folders/sk/pxzc9l1n12xfhw7mpgdgdkdc0000gn/T//tqf40.elf.kOuEog.ltrans0.ltrans.o
 .rodata.message24
                0x0000000000043d42        0x8 /var/folders/sk/pxzc9l1n12xfhw7mpgdgdkdc0000gn/T//tqf40.elf.kOuEog.ltrans0.ltrans.o
 .rodata.message107
                0x0000000000043d4a        0xf /var/folders/sk/pxzc9l1n12xfhw7mpgdgdkdc0000gn/T//tqf40.elf.kOuEog.ltrans0.ltrans.o
 .rodata.message109
                0x0000000000043d59       0x13 /var/folders/sk/pxzc9l1n12xfhw7mpgdgdkdc0000gn/T//tqf40.elf.kOuEog.ltrans0.ltrans.o
 .rodata.message40
                0x0000000000043d6c       0x3b /var/folders/sk/pxzc9l1n12xfhw7mpgdgdkdc0000gn/T//tqf40.elf.kOuEog.ltrans0.ltrans.o
 .rodata.message30
                0x0000000000043da7       0x2b /var/folders/sk/pxzc9l1n12xfhw7mpgdgdkdc0000gn/T//tqf40.elf.kOuEog.ltrans0.ltrans.o
 .rodata.message28
                0x0000000000043dd2       0x24 /var/folders/sk/pxzc9l1n12xfhw7mpgdgdkdc0000gn/T//tqf40.elf.kOuEog.ltrans0.ltrans.o
 .rodata.message27
                0x0000000000043df6       0x1c /var/folders/sk/pxzc9l1n12xfhw7mpgdgdkdc0000gn/T//tqf40.elf.kOuEog.ltrans0.ltrans.o
 .rodata.message23
                0x0000000000043e12       0x10 /var/folders/sk/pxzc9l1n12xfhw7mpgdgdkdc0000gn/T//tqf40.elf.kOuEog.ltrans0.ltrans.o
 .rodata.message10
                0x0000000000043e22       0x2a /var/folders/sk/pxzc9l1n12xfhw7mpgdgdkdc0000gn/T//tqf40.elf.kOuEog.ltrans0.ltrans.o
 .rodata.message26
                0x0000000000043e4c       0x11 /var/folders/sk/pxzc9l1n12xfhw7mpgdgdkdc0000gn/T//tqf40.elf.kOuEog.ltrans0.ltrans.o
 .rodata.message25
                0x0000000000043e5d        0xb /var/folders/sk/pxzc9l1n12xfhw7mpgdgdkdc0000gn/T//tqf40.elf.kOuEog.ltrans0.ltrans.o
 .rodata.message9
                0x0000000000043e68       0x32 /var/folders/sk/pxzc9l1n12xfhw7mpgdgdkdc0000gn/T//tqf40.elf.kOuEog.ltrans0.ltrans.o
 .rodata.message66
                0x0000000000043e9a       0x33 /var/folders/sk/pxzc9l1n12xfhw7mpgdgdkdc0000gn/T//tqf40.elf.kOuEog.ltrans0.ltrans.o
 .rodata.message8
                0x0000000000043ecd       0x5d /var/folders/sk/pxzc9l1n12xfhw7mpgdgdkdc0000gn/T//tqf40.elf.kOuEog.ltrans0.ltrans.o
 .rodata.message102
                0x0000000000043f2a       0x20 /var/folders/sk/pxzc9l1n12xfhw7mpgdgdkdc0000gn/T//tqf40.elf.kOuEog.ltrans0.ltrans.o
 .rodata.message7
                0x0000000000043f4a       0x20 /var/folders/sk/pxzc9l1n12xfhw7mpgdgdkdc0000gn/T//tqf40.elf.kOuEog.ltrans0.ltrans.o
 .rodata.message6
                0x0000000000043f6a       0x41 /var/folders/sk/pxzc9l1n12xfhw7mpgdgdkdc0000gn/T//tqf40.elf.kOuEog.ltrans0.ltrans.o
 .rodata.message5
                0x0000000000043fab       0x19 /var/folders/sk/pxzc9l1n12xfhw7mpgdgdkdc0000gn/T//tqf40.elf.kOuEog.ltrans0.ltrans.o
 .rodata.message4
                0x0000000000043fc4       0x15 /var/folders/sk/pxzc9l1n12xfhw7mpgdgdkdc0000gn/T//tqf40.elf.kOuEog.ltrans0.ltrans.o
 .rodata.message3
                0x0000000000043fd9       0x27 /var/folders/sk/pxzc9l1n12xfhw7mpgdgdkdc0000gn/T//tqf40.elf.kOuEog.ltrans0.ltrans.o
 .rodata.message2
                0x0000000000044000       0x1a /var/folders/sk/pxzc9l1n12xfhw7mpgdgdkdc0000gn/T//tqf40.elf.kOuEog.ltrans0.ltrans.o
 .rodata.message1
                0x000000000004401a       0xa4 /var/folders/sk/pxzc9l1n12xfhw7mpgdgdkdc0000gn/T//tqf40.elf.kOuEog.ltrans0.ltrans.o
 .rodata.areyousure
                0x00000000000440be       0x1e /var/folders/sk/pxzc9l1n12xfhw7mpgdgdkdc0000gn/T//tqf40.elf.kOuEog.ltrans0.ltrans.o
 .rodata.message1008
                0x00000000000440dc       0x12 /var/folders/sk/pxzc9l1n12xfhw7mpgdgdkdc0000gn/T//tqf40.elf.kOuEog.ltrans0.ltrans.o
 .rodata.message108
                0x00000000000440ee       0x17 /var/folders/sk/pxzc9l1n12xfhw7mpgdgdkdc0000gn/T//tqf40.elf.kOuEog.ltrans0.ltrans.o
 .rodata.message1019
                0x0000000000044105        0xe /var/folders/sk/pxzc9l1n12xfhw7mpgdgdkdc0000gn/T//tqf40.elf.kOuEog.ltrans0.ltrans.o
 .rodata.message701
                0x0000000000044113        0xf /var/folders/sk/pxzc9l1n12xfhw7mpgdgdkdc0000gn/T//tqf40.elf.kOuEog.ltrans0.ltrans.o
 .rodata.message700
                0x0000000000044122       0x10 /var/folders/sk/pxzc9l1n12xfhw7mpgdgdkdc0000gn/T//tqf40.elf.kOuEog.ltrans0.ltrans.o
 .rodata.message699
                0x0000000000044132       0x19 /var/folders/sk/pxzc9l1n12xfhw7mpgdgdkdc0000gn/T//tqf40.elf.kOuEog.ltrans0.ltrans.o
 .rodata.message669
                0x000000000004414b       0x2d /var/folders/sk/pxzc9l1n12xfhw7mpgdgdkdc0000gn/T//tqf40.elf.kOuEog.ltrans0.ltrans.o
 .rodata.message668
                0x0000000000044178       0x19 /var/folders/sk/pxzc9l1n12xfhw7mpgdgdkdc0000gn/T//tqf40.elf.kOuEog.ltrans0.ltrans.o
 .rodata.message649
                0x0000000000044191        0xe /var/folders/sk/pxzc9l1n12xfhw7mpgdgdkdc0000gn/T//tqf40.elf.kOuEog.ltrans0.ltrans.o
 .rodata.message231
                0x000000000004419f       0x16 /var/folders/sk/pxzc9l1n12xfhw7mpgdgdkdc0000gn/T//tqf40.elf.kOuEog.ltrans0.ltrans.o
 .rodata.message902
                0x00000000000441b5       0x14 /var/folders/sk/pxzc9l1n12xfhw7mpgdgdkdc0000gn/T//tqf40.elf.kOuEog.ltrans0.ltrans.o
 .rodata.message912
                0x00000000000441c9       0x14 /var/folders/sk/pxzc9l1n12xfhw7mpgdgdkdc0000gn/T//tqf40.elf.kOuEog.ltrans0.ltrans.o
 .rodata.message626
                0x00000000000441dd       0x18 /var/folders/sk/pxzc9l1n12xfhw7mpgdgdkdc0000gn/T//tqf40.elf.kOuEog.ltrans0.ltrans.o
 .rodata.message996
                0x00000000000441f5       0x12 /var/folders/sk/pxzc9l1n12xfhw7mpgdgdkdc0000gn/T//tqf40.elf.kOuEog.ltrans0.ltrans.o
 .rodata.message901
                0x0000000000044207       0x13 /var/folders/sk/pxzc9l1n12xfhw7mpgdgdkdc0000gn/T//tqf40.elf.kOuEog.ltrans0.ltrans.o
 .rodata.message900
                0x000000000004421a       0x13 /var/folders/sk/pxzc9l1n12xfhw7mpgdgdkdc0000gn/T//tqf40.elf.kOuEog.ltrans0.ltrans.o
 .rodata.message695
                0x000000000004422d       0x28 /var/folders/sk/pxzc9l1n12xfhw7mpgdgdkdc0000gn/T//tqf40.elf.kOuEog.ltrans0.ltrans.o
 .rodata.message694
                0x0000000000044255       0x1e /var/folders/sk/pxzc9l1n12xfhw7mpgdgdkdc0000gn/T//tqf40.elf.kOuEog.ltrans0.ltrans.o
 .rodata.message911
                0x0000000000044273       0x3e /var/folders/sk/pxzc9l1n12xfhw7mpgdgdkdc0000gn/T//tqf40.elf.kOuEog.ltrans0.ltrans.o
 .rodata.message622
                0x00000000000442b1       0x2c /var/folders/sk/pxzc9l1n12xfhw7mpgdgdkdc0000gn/T//tqf40.elf.kOuEog.ltrans0.ltrans.o
 .rodata.message670
                0x00000000000442dd       0x36 /var/folders/sk/pxzc9l1n12xfhw7mpgdgdkdc0000gn/T//tqf40.elf.kOuEog.ltrans0.ltrans.o
 .rodata.message657
                0x0000000000044313       0x11 /var/folders/sk/pxzc9l1n12xfhw7mpgdgdkdc0000gn/T//tqf40.elf.kOuEog.ltrans0.ltrans.o
 .rodata.message650
                0x0000000000044324       0x31 /var/folders/sk/pxzc9l1n12xfhw7mpgdgdkdc0000gn/T//tqf40.elf.kOuEog.ltrans0.ltrans.o
 .rodata.message697
                0x0000000000044355       0x15 /var/folders/sk/pxzc9l1n12xfhw7mpgdgdkdc0000gn/T//tqf40.elf.kOuEog.ltrans0.ltrans.o
 .rodata.message704
                0x000000000004436a       0x13 /var/folders/sk/pxzc9l1n12xfhw7mpgdgdkdc0000gn/T//tqf40.elf.kOuEog.ltrans0.ltrans.o
 .rodata.message621
                0x000000000004437d       0x26 /var/folders/sk/pxzc9l1n12xfhw7mpgdgdkdc0000gn/T//tqf40.elf.kOuEog.ltrans0.ltrans.o
 .rodata.message603
                0x00000000000443a3       0x4f /var/folders/sk/pxzc9l1n12xfhw7mpgdgdkdc0000gn/T//tqf40.elf.kOuEog.ltrans0.ltrans.o
 .rodata.message602
                0x00000000000443f2       0x4c /var/folders/sk/pxzc9l1n12xfhw7mpgdgdkdc0000gn/T//tqf40.elf.kOuEog.ltrans0.ltrans.o
 .rodata.message605
                0x000000000004443e       0x28 /var/folders/sk/pxzc9l1n12xfhw7mpgdgdkdc0000gn/T//tqf40.elf.kOuEog.ltrans0.ltrans.o
 .rodata.message402
                0x0000000000044466       0x13 /var/folders/sk/pxzc9l1n12xfhw7mpgdgdkdc0000gn/T//tqf40.elf.kOuEog.ltrans0.ltrans.o
 .rodata.message604
                0x0000000000044479       0x5a /var/folders/sk/pxzc9l1n12xfhw7mpgdgdkdc0000gn/T//tqf40.elf.kOuEog.ltrans0.ltrans.o
 .rodata.message628
                0x00000000000444d3       0x2e /var/folders/sk/pxzc9l1n12xfhw7mpgdgdkdc0000gn/T//tqf40.elf.kOuEog.ltrans0.ltrans.o
 .rodata.message632
                0x0000000000044501       0x17 /var/folders/sk/pxzc9l1n12xfhw7mpgdgdkdc0000gn/T//tqf40.elf.kOuEog.ltrans0.ltrans.o
 .rodata.message646
                0x0000000000044518       0x16 /var/folders/sk/pxzc9l1n12xfhw7mpgdgdkdc0000gn/T//tqf40.elf.kOuEog.ltrans0.ltrans.o
 .rodata.message696
                0x000000000004452e       0x1c /var/folders/sk/pxzc9l1n12xfhw7mpgdgdkdc0000gn/T//tqf40.elf.kOuEog.ltrans0.ltrans.o
 .rodata.message698
                0x000000000004454a       0x61 /var/folders/sk/pxzc9l1n12xfhw7mpgdgdkdc0000gn/T//tqf40.elf.kOuEog.ltrans0.ltrans.o
 .rodata.message997
                0x00000000000445ab       0x36 /var/folders/sk/pxzc9l1n12xfhw7mpgdgdkdc0000gn/T//tqf40.elf.kOuEog.ltrans0.ltrans.o
 .rodata.message907
                0x00000000000445e1       0x16 /var/folders/sk/pxzc9l1n12xfhw7mpgdgdkdc0000gn/T//tqf40.elf.kOuEog.ltrans0.ltrans.o
 .rodata.message608
                0x00000000000445f7       0x1a /var/folders/sk/pxzc9l1n12xfhw7mpgdgdkdc0000gn/T//tqf40.elf.kOuEog.ltrans0.ltrans.o
 .rodata.message237
                0x0000000000044611       0x11 /var/folders/sk/pxzc9l1n12xfhw7mpgdgdkdc0000gn/T//tqf40.elf.kOuEog.ltrans0.ltrans.o
 .rodata.message609
                0x0000000000044622       0x19 /var/folders/sk/pxzc9l1n12xfhw7mpgdgdkdc0000gn/T//tqf40.elf.kOuEog.ltrans0.ltrans.o
 .rodata.message307
                0x000000000004463b       0x14 /var/folders/sk/pxzc9l1n12xfhw7mpgdgdkdc0000gn/T//tqf40.elf.kOuEog.ltrans0.ltrans.o
 .rodata.message291
                0x000000000004464f       0x20 /var/folders/sk/pxzc9l1n12xfhw7mpgdgdkdc0000gn/T//tqf40.elf.kOuEog.ltrans0.ltrans.o
 .rodata.message290
                0x000000000004466f       0x27 /var/folders/sk/pxzc9l1n12xfhw7mpgdgdkdc0000gn/T//tqf40.elf.kOuEog.ltrans0.ltrans.o
 .rodata.message289
                0x0000000000044696       0x1b /var/folders/sk/pxzc9l1n12xfhw7mpgdgdkdc0000gn/T//tqf40.elf.kOuEog.ltrans0.ltrans.o
 .rodata.message279
                0x00000000000446b1       0x4f /var/folders/sk/pxzc9l1n12xfhw7mpgdgdkdc0000gn/T//tqf40.elf.kOuEog.ltrans0.ltrans.o
 .rodata.message298
                0x0000000000044700       0x2d /var/folders/sk/pxzc9l1n12xfhw7mpgdgdkdc0000gn/T//tqf40.elf.kOuEog.ltrans0.ltrans.o
 .rodata.message280
                0x000000000004472d        0xe /var/folders/sk/pxzc9l1n12xfhw7mpgdgdkdc0000gn/T//tqf40.elf.kOuEog.ltrans0.ltrans.o
 .rodata.message251
                0x000000000004473b       0x66 /var/folders/sk/pxzc9l1n12xfhw7mpgdgdkdc0000gn/T//tqf40.elf.kOuEog.ltrans0.ltrans.o
 .rodata.message407
                0x00000000000447a1      0x111 /var/folders/sk/pxzc9l1n12xfhw7mpgdgdkdc0000gn/T//tqf40.elf.kOuEog.ltrans0.ltrans.o
 .rodata.message244
                0x00000000000448b2       0x69 /var/folders/sk/pxzc9l1n12xfhw7mpgdgdkdc0000gn/T//tqf40.elf.kOuEog.ltrans0.ltrans.o
 .rodata.message309
                0x000000000004491b       0x18 /var/folders/sk/pxzc9l1n12xfhw7mpgdgdkdc0000gn/T//tqf40.elf.kOuEog.ltrans0.ltrans.o
 .rodata.message235
                0x0000000000044933      0x1a9 /var/folders/sk/pxzc9l1n12xfhw7mpgdgdkdc0000gn/T//tqf40.elf.kOuEog.ltrans0.ltrans.o
 .rodata.message239
                0x0000000000044adc       0x75 /var/folders/sk/pxzc9l1n12xfhw7mpgdgdkdc0000gn/T//tqf40.elf.kOuEog.ltrans0.ltrans.o
 .rodata.message1000
                0x0000000000044b51        0x6 /var/folders/sk/pxzc9l1n12xfhw7mpgdgdkdc0000gn/T//tqf40.elf.kOuEog.ltrans0.ltrans.o
 .rodata.message257
                0x0000000000044b57       0x5c /var/folders/sk/pxzc9l1n12xfhw7mpgdgdkdc0000gn/T//tqf40.elf.kOuEog.ltrans0.ltrans.o
 .rodata.message299
                0x0000000000044bb3       0x21 /var/folders/sk/pxzc9l1n12xfhw7mpgdgdkdc0000gn/T//tqf40.elf.kOuEog.ltrans0.ltrans.o
 .rodata.message265
                0x0000000000044bd4       0x4e /var/folders/sk/pxzc9l1n12xfhw7mpgdgdkdc0000gn/T//tqf40.elf.kOuEog.ltrans0.ltrans.o
 .rodata.message234
                0x0000000000044c22       0x90 /var/folders/sk/pxzc9l1n12xfhw7mpgdgdkdc0000gn/T//tqf40.elf.kOuEog.ltrans0.ltrans.o
 .rodata.message300
                0x0000000000044cb2       0xfb /var/folders/sk/pxzc9l1n12xfhw7mpgdgdkdc0000gn/T//tqf40.elf.kOuEog.ltrans0.ltrans.o
 .rodata.message301
                0x0000000000044dad      0x1a5 /var/folders/sk/pxzc9l1n12xfhw7mpgdgdkdc0000gn/T//tqf40.elf.kOuEog.ltrans0.ltrans.o
 .rodata.message233
                0x0000000000044f52       0x46 /var/folders/sk/pxzc9l1n12xfhw7mpgdgdkdc0000gn/T//tqf40.elf.kOuEog.ltrans0.ltrans.o
 .rodata.message505
                0x0000000000044f98        0x9 /var/folders/sk/pxzc9l1n12xfhw7mpgdgdkdc0000gn/T//tqf40.elf.kOuEog.ltrans0.ltrans.o
 .rodata.message232
                0x0000000000044fa1       0x27 /var/folders/sk/pxzc9l1n12xfhw7mpgdgdkdc0000gn/T//tqf40.elf.kOuEog.ltrans0.ltrans.o
 .rodata.message249
                0x0000000000044fc8       0x83 /var/folders/sk/pxzc9l1n12xfhw7mpgdgdkdc0000gn/T//tqf40.elf.kOuEog.ltrans0.ltrans.o
 .rodata.message240
                0x000000000004504b       0x34 /var/folders/sk/pxzc9l1n12xfhw7mpgdgdkdc0000gn/T//tqf40.elf.kOuEog.ltrans0.ltrans.o
 .rodata.message261
                0x000000000004507f       0x50 /var/folders/sk/pxzc9l1n12xfhw7mpgdgdkdc0000gn/T//tqf40.elf.kOuEog.ltrans0.ltrans.o
 .rodata.message308
                0x00000000000450cf       0x18 /var/folders/sk/pxzc9l1n12xfhw7mpgdgdkdc0000gn/T//tqf40.elf.kOuEog.ltrans0.ltrans.o
 .rodata.message910
                0x00000000000450e7       0x3f /var/folders/sk/pxzc9l1n12xfhw7mpgdgdkdc0000gn/T//tqf40.elf.kOuEog.ltrans0.ltrans.o
 .rodata.message92
                0x0000000000045126       0x2d /var/folders/sk/pxzc9l1n12xfhw7mpgdgdkdc0000gn/T//tqf40.elf.kOuEog.ltrans0.ltrans.o
 .rodata.message93
                0x0000000000045153       0x2a /var/folders/sk/pxzc9l1n12xfhw7mpgdgdkdc0000gn/T//tqf40.elf.kOuEog.ltrans0.ltrans.o
 .rodata.message104
                0x000000000004517d       0x3a /var/folders/sk/pxzc9l1n12xfhw7mpgdgdkdc0000gn/T//tqf40.elf.kOuEog.ltrans0.ltrans.o
 .rodata.message97
                0x00000000000451b7       0x25 /var/folders/sk/pxzc9l1n12xfhw7mpgdgdkdc0000gn/T//tqf40.elf.kOuEog.ltrans0.ltrans.o
 .rodata.message96
                0x00000000000451dc       0x13 /var/folders/sk/pxzc9l1n12xfhw7mpgdgdkdc0000gn/T//tqf40.elf.kOuEog.ltrans0.ltrans.o
 .rodata.message52
                0x00000000000451ef       0x86 /var/folders/sk/pxzc9l1n12xfhw7mpgdgdkdc0000gn/T//tqf40.elf.kOuEog.ltrans0.ltrans.o
 .rodata.message51
                0x0000000000045275       0x57 /var/folders/sk/pxzc9l1n12xfhw7mpgdgdkdc0000gn/T//tqf40.elf.kOuEog.ltrans0.ltrans.o
 .rodata.message50
                0x00000000000452cc       0x1d /var/folders/sk/pxzc9l1n12xfhw7mpgdgdkdc0000gn/T//tqf40.elf.kOuEog.ltrans0.ltrans.o
 .rodata.message32
                0x00000000000452e9       0x2a /var/folders/sk/pxzc9l1n12xfhw7mpgdgdkdc0000gn/T//tqf40.elf.kOuEog.ltrans0.ltrans.o
 .rodata.message29
                0x0000000000045313       0x13 /var/folders/sk/pxzc9l1n12xfhw7mpgdgdkdc0000gn/T//tqf40.elf.kOuEog.ltrans0.ltrans.o
 .rodata.message36
                0x0000000000045326       0x86 /var/folders/sk/pxzc9l1n12xfhw7mpgdgdkdc0000gn/T//tqf40.elf.kOuEog.ltrans0.ltrans.o
 .rodata.message34
                0x00000000000453ac       0x52 /var/folders/sk/pxzc9l1n12xfhw7mpgdgdkdc0000gn/T//tqf40.elf.kOuEog.ltrans0.ltrans.o
 .rodata.message13
                0x00000000000453fe      0x112 /var/folders/sk/pxzc9l1n12xfhw7mpgdgdkdc0000gn/T//tqf40.elf.kOuEog.ltrans0.ltrans.o
 .rodata.message45
                0x0000000000045510       0xe4 /var/folders/sk/pxzc9l1n12xfhw7mpgdgdkdc0000gn/T//tqf40.elf.kOuEog.ltrans0.ltrans.o
 .rodata.message44
                0x00000000000455f4       0x44 /var/folders/sk/pxzc9l1n12xfhw7mpgdgdkdc0000gn/T//tqf40.elf.kOuEog.ltrans0.ltrans.o
 .rodata.message55
                0x0000000000045638       0xe6 /var/folders/sk/pxzc9l1n12xfhw7mpgdgdkdc0000gn/T//tqf40.elf.kOuEog.ltrans0.ltrans.o
 .rodata.message105
                0x000000000004571e        0xd /var/folders/sk/pxzc9l1n12xfhw7mpgdgdkdc0000gn/T//tqf40.elf.kOuEog.ltrans0.ltrans.o
 .rodata.message54
                0x000000000004572b       0x18 /var/folders/sk/pxzc9l1n12xfhw7mpgdgdkdc0000gn/T//tqf40.elf.kOuEog.ltrans0.ltrans.o
 .rodata.message913
                0x0000000000045743       0x1c /var/folders/sk/pxzc9l1n12xfhw7mpgdgdkdc0000gn/T//tqf40.elf.kOuEog.ltrans0.ltrans.o
 .rodata.message22
                0x000000000004575f       0x45 /var/folders/sk/pxzc9l1n12xfhw7mpgdgdkdc0000gn/T//tqf40.elf.kOuEog.ltrans0.ltrans.o
 .rodata.message101
                0x00000000000457a4       0x22 /var/folders/sk/pxzc9l1n12xfhw7mpgdgdkdc0000gn/T//tqf40.elf.kOuEog.ltrans0.ltrans.o
 .rodata.message504
                0x00000000000457c6       0x36 /var/folders/sk/pxzc9l1n12xfhw7mpgdgdkdc0000gn/T//tqf40.elf.kOuEog.ltrans0.ltrans.o
 .rodata.message998
                0x00000000000457fc       0x47 /var/folders/sk/pxzc9l1n12xfhw7mpgdgdkdc0000gn/T//tqf40.elf.kOuEog.ltrans0.ltrans.o
 .rodata.message401
                0x0000000000045843       0x14 /var/folders/sk/pxzc9l1n12xfhw7mpgdgdkdc0000gn/T//tqf40.elf.kOuEog.ltrans0.ltrans.o
 .rodata.message400
                0x0000000000045857        0xc /var/folders/sk/pxzc9l1n12xfhw7mpgdgdkdc0000gn/T//tqf40.elf.kOuEog.ltrans0.ltrans.o
 .rodata.message19
                0x0000000000045863       0x36 /var/folders/sk/pxzc9l1n12xfhw7mpgdgdkdc0000gn/T//tqf40.elf.kOuEog.ltrans0.ltrans.o
 .rodata.message1033
                0x0000000000045899        0xe /var/folders/sk/pxzc9l1n12xfhw7mpgdgdkdc0000gn/T//tqf40.elf.kOuEog.ltrans0.ltrans.o
 .rodata.message1018
                0x00000000000458a7        0x9 /var/folders/sk/pxzc9l1n12xfhw7mpgdgdkdc0000gn/T//tqf40.elf.kOuEog.ltrans0.ltrans.o
 .rodata.message1032
                0x00000000000458b0        0x8 /var/folders/sk/pxzc9l1n12xfhw7mpgdgdkdc0000gn/T//tqf40.elf.kOuEog.ltrans0.ltrans.o
 .rodata.message518
                0x00000000000458b8       0x18 /var/folders/sk/pxzc9l1n12xfhw7mpgdgdkdc0000gn/T//tqf40.elf.kOuEog.ltrans0.ltrans.o
 .rodata.message1010
                0x00000000000458d0        0x7 /var/folders/sk/pxzc9l1n12xfhw7mpgdgdkdc0000gn/T//tqf40.elf.kOuEog.ltrans0.ltrans.o
 .rodata.message1009
                0x00000000000458d7        0x6 /var/folders/sk/pxzc9l1n12xfhw7mpgdgdkdc0000gn/T//tqf40.elf.kOuEog.ltrans0.ltrans.o
 .rodata.message1012
                0x00000000000458dd        0xb /var/folders/sk/pxzc9l1n12xfhw7mpgdgdkdc0000gn/T//tqf40.elf.kOuEog.ltrans0.ltrans.o
 .rodata.dir    0x00000000000458e8       0x18 /var/folders/sk/pxzc9l1n12xfhw7mpgdgdkdc0000gn/T//tqf40.elf.kOuEog.ltrans0.ltrans.o
 .rodata.message1020
                0x0000000000045900        0x9 /var/folders/sk/pxzc9l1n12xfhw7mpgdgdkdc0000gn/T//tqf40.elf.kOuEog.ltrans0.ltrans.o
 .rodata.message1031
                0x0000000000045909        0x9 /var/folders/sk/pxzc9l1n12xfhw7mpgdgdkdc0000gn/T//tqf40.elf.kOuEog.ltrans0.ltrans.o
 .rodata.message682
                0x0000000000045912       0x26 /var/folders/sk/pxzc9l1n12xfhw7mpgdgdkdc0000gn/T//tqf40.elf.kOuEog.ltrans0.ltrans.o
 .rodata.message681
                0x0000000000045938      0x228 /var/folders/sk/pxzc9l1n12xfhw7mpgdgdkdc0000gn/T//tqf40.elf.kOuEog.ltrans0.ltrans.o
 .rodata.message643
                0x0000000000045b60       0x66 /var/folders/sk/pxzc9l1n12xfhw7mpgdgdkdc0000gn/T//tqf40.elf.kOuEog.ltrans0.ltrans.o
 .rodata.message667
                0x0000000000045bc6       0x39 /var/folders/sk/pxzc9l1n12xfhw7mpgdgdkdc0000gn/T//tqf40.elf.kOuEog.ltrans0.ltrans.o
 .rodata.message638
                0x0000000000045bff       0x8d /var/folders/sk/pxzc9l1n12xfhw7mpgdgdkdc0000gn/T//tqf40.elf.kOuEog.ltrans0.ltrans.o
 .rodata.message637
                0x0000000000045c8c       0xcf /var/folders/sk/pxzc9l1n12xfhw7mpgdgdkdc0000gn/T//tqf40.elf.kOuEog.ltrans0.ltrans.o
 .rodata.message636
                0x0000000000045d5b      0x1e3 /var/folders/sk/pxzc9l1n12xfhw7mpgdgdkdc0000gn/T//tqf40.elf.kOuEog.ltrans0.ltrans.o
 .rodata.message601
                0x0000000000045f3e       0x11 /var/folders/sk/pxzc9l1n12xfhw7mpgdgdkdc0000gn/T//tqf40.elf.kOuEog.ltrans0.ltrans.o
 .rodata.message243
                0x0000000000045f4f       0x25 /var/folders/sk/pxzc9l1n12xfhw7mpgdgdkdc0000gn/T//tqf40.elf.kOuEog.ltrans0.ltrans.o
 .rodata.message238
                0x0000000000045f74      0x169 /var/folders/sk/pxzc9l1n12xfhw7mpgdgdkdc0000gn/T//tqf40.elf.kOuEog.ltrans0.ltrans.o
 .rodata.message57
                0x00000000000460dd       0xf8 /var/folders/sk/pxzc9l1n12xfhw7mpgdgdkdc0000gn/T//tqf40.elf.kOuEog.ltrans0.ltrans.o
 .rodata.message49
                0x00000000000461d5       0x6c /var/folders/sk/pxzc9l1n12xfhw7mpgdgdkdc0000gn/T//tqf40.elf.kOuEog.ltrans0.ltrans.o
 .rodata.message16
                0x0000000000046241       0xe2 /var/folders/sk/pxzc9l1n12xfhw7mpgdgdkdc0000gn/T//tqf40.elf.kOuEog.ltrans0.ltrans.o
 .rodata.message1007
                0x0000000000046323        0xb /var/folders/sk/pxzc9l1n12xfhw7mpgdgdkdc0000gn/T//tqf40.elf.kOuEog.ltrans0.ltrans.o
 .rodata.message1005
                0x000000000004632e        0xd /var/folders/sk/pxzc9l1n12xfhw7mpgdgdkdc0000gn/T//tqf40.elf.kOuEog.ltrans0.ltrans.o
 .rodata.message1006
                0x000000000004633b        0xa /var/folders/sk/pxzc9l1n12xfhw7mpgdgdkdc0000gn/T//tqf40.elf.kOuEog.ltrans0.ltrans.o
 .rodata.huftree
                0x0000000000046345      0x1a7 /var/folders/sk/pxzc9l1n12xfhw7mpgdgdkdc0000gn/T//tqf40.elf.kOuEog.ltrans0.ltrans.o
 .rodata.original_position
                0x00000000000464ec       0xb4 /var/folders/sk/pxzc9l1n12xfhw7mpgdgdkdc0000gn/T//tqf40.elf.kOuEog.ltrans0.ltrans.o
 .rodata.original_connections
                0x00000000000465a0      0x180 /var/folders/sk/pxzc9l1n12xfhw7mpgdgdkdc0000gn/T//tqf40.elf.kOuEog.ltrans0.ltrans.o
 .rodata.str1.1
                0x0000000000046720       0xac /Users/davidebucci/Desktop/Synchronized/Vintage/Computing/Atari/ST/brown/lib/gcc/m68k-atariextrabrowner-elf/10.2.0/../../../../m68k-atariextrabrowner-elf/lib/m68000/libc.a(crtinit.o)
                                         0xad (size before relaxing)
 .rodata.str1.1
                0x00000000000467cc       0x14 /Users/davidebucci/Desktop/Synchronized/Vintage/Computing/Atari/ST/brown/lib/gcc/m68k-atariextrabrowner-elf/10.2.0/../../../../m68k-atariextrabrowner-elf/lib/m68000/libc.a(globals.o)
 .rodata.str1.1
                0x00000000000467e0       0x13 /Users/davidebucci/Desktop/Synchronized/Vintage/Computing/Atari/ST/brown/lib/gcc/m68k-atariextrabrowner-elf/10.2.0/../../../../m68k-atariextrabrowner-elf/lib/m68000/libc.a(main.o)
 .rodata.str1.1
                0x00000000000467f3       0x4d /Users/davidebucci/Desktop/Synchronized/Vintage/Computing/Atari/ST/brown/lib/gcc/m68k-atariextrabrowner-elf/10.2.0/../../../../m68k-atariextrabrowner-elf/lib/m68000/libc.a(malloc.o)
 .rodata        0x0000000000046840        0x7 /Users/davidebucci/Desktop/Synchronized/Vintage/Computing/Atari/ST/brown/lib/gcc/m68k-atariextrabrowner-elf/10.2.0/../../../../m68k-atariextrabrowner-elf/lib/m68000/libc.a(malloc.o)
 .rodata.str1.1
                0x0000000000046847       0x1c /Users/davidebucci/Desktop/Synchronized/Vintage/Computing/Atari/ST/brown/lib/gcc/m68k-atariextrabrowner-elf/10.2.0/../../../../m68k-atariextrabrowner-elf/lib/m68000/libc.a(realloc.o)
 .rodata        0x0000000000046863        0xa /Users/davidebucci/Desktop/Synchronized/Vintage/Computing/Atari/ST/brown/lib/gcc/m68k-atariextrabrowner-elf/10.2.0/../../../../m68k-atariextrabrowner-elf/lib/m68000/libc.a(realloc.o)
 .rodata.str1.1
                0x000000000004686d       0x12 /Users/davidebucci/Desktop/Synchronized/Vintage/Computing/Atari/ST/brown/lib/gcc/m68k-atariextrabrowner-elf/10.2.0/../../../../m68k-atariextrabrowner-elf/lib/m68000/libc.a(unx2dos.o)
                                         0x14 (size before relaxing)
 *fill*         0x000000000004687f        0x1 
 .rodata        0x0000000000046880       0x30 /Users/davidebucci/Desktop/Synchronized/Vintage/Computing/Atari/ST/brown/lib/gcc/m68k-atariextrabrowner-elf/10.2.0/../../../../m68k-atariextrabrowner-elf/lib/m68000/libc.a(internals.o)
                0x0000000000046880                ___default_room_functions
                0x0000000000046888                ___default_text_io_functions
                0x000000000004689c                ___default_io_functions
 .rodata.str1.1
                0x00000000000468b0        0x9 /Users/davidebucci/Desktop/Synchronized/Vintage/Computing/Atari/ST/brown/lib/gcc/m68k-atariextrabrowner-elf/10.2.0/../../../../m68k-atariextrabrowner-elf/lib/m68000/libc.a(open.o)
 .rodata.str1.1
                0x00000000000468b9       0x18 /Users/davidebucci/Desktop/Synchronized/Vintage/Computing/Atari/ST/brown/lib/gcc/m68k-atariextrabrowner-elf/10.2.0/../../../../m68k-atariextrabrowner-elf/lib/m68000/libc.a(assert.o)
                                         0x31 (size before relaxing)
 .rodata.str1.1
                0x00000000000468d1       0x19 /Users/davidebucci/Desktop/Synchronized/Vintage/Computing/Atari/ST/brown/lib/gcc/m68k-atariextrabrowner-elf/10.2.0/../../../../m68k-atariextrabrowner-elf/lib/m68000/libc.a(quickstat.o)
 .rodata        0x00000000000468ea       0x4a /Users/davidebucci/Desktop/Synchronized/Vintage/Computing/Atari/ST/brown/lib/gcc/m68k-atariextrabrowner-elf/10.2.0/../../../../m68k-atariextrabrowner-elf/lib/m68000/libc.a(itoa-digits.o)
                0x00000000000468ea                __itoa_upper_digits
                0x000000000004690f                __itoa_lower_digits
 .rodata.str1.1
                0x0000000000046934       0x94 /Users/davidebucci/Desktop/Synchronized/Vintage/Computing/Atari/ST/brown/lib/gcc/m68k-atariextrabrowner-elf/10.2.0/../../../../m68k-atariextrabrowner-elf/lib/m68000/libc.a(localtime.o)
 .rodata        0x00000000000469c8     0x2dcc /Users/davidebucci/Desktop/Synchronized/Vintage/Computing/Atari/ST/brown/lib/gcc/m68k-atariextrabrowner-elf/10.2.0/../../../../m68k-atariextrabrowner-elf/lib/m68000/libc.a(localtime.o)
 .rodata.str1.1
                0x0000000000049794        0xc /Users/davidebucci/Desktop/Synchronized/Vintage/Computing/Atari/ST/brown/lib/gcc/m68k-atariextrabrowner-elf/10.2.0/../../../../m68k-atariextrabrowner-elf/lib/m68000/libc.a(ioctl.o)
 .rodata.str1.1
                0x00000000000497a0       0x19 /Users/davidebucci/Desktop/Synchronized/Vintage/Computing/Atari/ST/brown/lib/gcc/m68k-atariextrabrowner-elf/10.2.0/../../../../m68k-atariextrabrowner-elf/lib/m68000/libc.a(do_stat.o)
 .rodata.str1.1
                0x00000000000497a0        0xc /Users/davidebucci/Desktop/Synchronized/Vintage/Computing/Atari/ST/brown/lib/gcc/m68k-atariextrabrowner-elf/10.2.0/../../../../m68k-atariextrabrowner-elf/lib/m68000/libc.a(getpwuid_r.o)
                                          0xe (size before relaxing)
 .rodata.str1.1
                0x00000000000497ac        0xb /Users/davidebucci/Desktop/Synchronized/Vintage/Computing/Atari/ST/brown/lib/gcc/m68k-atariextrabrowner-elf/10.2.0/../../../../m68k-atariextrabrowner-elf/lib/m68000/libc.a(grp.o)
                                          0xe (size before relaxing)
 .rodata.str1.1
                0x00000000000497b7       0x6a /Users/davidebucci/Desktop/Synchronized/Vintage/Computing/Atari/ST/brown/lib/gcc/m68k-atariextrabrowner-elf/10.2.0/../../../../m68k-atariextrabrowner-elf/lib/m68000/libc.a(asctime.o)
                                         0x6d (size before relaxing)
 .rodata        0x0000000000049821       0x39 /Users/davidebucci/Desktop/Synchronized/Vintage/Computing/Atari/ST/brown/lib/gcc/m68k-atariextrabrowner-elf/10.2.0/../../../../m68k-atariextrabrowner-elf/lib/m68000/libc.a(asctime.o)
 .rodata.str1.1
                0x000000000004985a      0x1e9 /Users/davidebucci/Desktop/Synchronized/Vintage/Computing/Atari/ST/brown/lib/gcc/m68k-atariextrabrowner-elf/10.2.0/../../../../m68k-atariextrabrowner-elf/lib/m68000/libc.a(strftime.o)
                                        0x1ee (size before relaxing)
 *fill*         0x0000000000049a43        0x1 
 .rodata        0x0000000000049a44       0xc8 /Users/davidebucci/Desktop/Synchronized/Vintage/Computing/Atari/ST/brown/lib/gcc/m68k-atariextrabrowner-elf/10.2.0/../../../../m68k-atariextrabrowner-elf/lib/m68000/libc.a(strftime.o)
 .rodata.str1.1
                0x0000000000049b0c        0x2 /Users/davidebucci/Desktop/Synchronized/Vintage/Computing/Atari/ST/brown/lib/gcc/m68k-atariextrabrowner-elf/10.2.0/../../../../m68k-atariextrabrowner-elf/lib/m68000/libc.a(setlocale.o)
 .rodata.str1.1
                0x0000000000049b0e        0x1 /Users/davidebucci/Desktop/Synchronized/Vintage/Computing/Atari/ST/brown/lib/gcc/m68k-atariextrabrowner-elf/10.2.0/../../../../m68k-atariextrabrowner-elf/lib/m68000/libc.a(fgetpwent_r.o)
 .rodata.str1.1
                0x0000000000049b0e        0x6 /Users/davidebucci/Desktop/Synchronized/Vintage/Computing/Atari/ST/brown/lib/gcc/m68k-atariextrabrowner-elf/10.2.0/../../../../m68k-atariextrabrowner-elf/lib/m68000/libc.a(vfprintf.o)
                                          0x7 (size before relaxing)
 .rodata        0x0000000000049b14      0x4cb /Users/davidebucci/Desktop/Synchronized/Vintage/Computing/Atari/ST/brown/lib/gcc/m68k-atariextrabrowner-elf/10.2.0/../../../../m68k-atariextrabrowner-elf/lib/m68000/libc.a(vfprintf.o)
 *fill*         0x0000000000049fdf        0x1 
 .rodata        0x0000000000049fe0      0x230 /Users/davidebucci/Desktop/Synchronized/Vintage/Computing/Atari/ST/brown/lib/gcc/m68k-atariextrabrowner-elf/10.2.0/../../../../m68k-atariextrabrowner-elf/lib/m68000/libc.a(_itoa.o)
 .rodata.str1.1
                0x000000000004a210       0x10 /Users/davidebucci/Desktop/Synchronized/Vintage/Computing/Atari/ST/brown/lib/gcc/m68k-atariextrabrowner-elf/10.2.0/../../../../m68k-atariextrabrowner-elf/lib/m68000/libc.a(printf_fp.o)
 .rodata        0x000000000004a220        0xc /Users/davidebucci/Desktop/Synchronized/Vintage/Computing/Atari/ST/brown/lib/gcc/m68k-atariextrabrowner-elf/10.2.0/../../../../m68k-atariextrabrowner-elf/lib/m68000/libc.a(printf_fp.o)
 .rodata.str1.1
                0x000000000004a22c       0x10 /Users/davidebucci/Desktop/Synchronized/Vintage/Computing/Atari/ST/brown/lib/gcc/m68k-atariextrabrowner-elf/10.2.0/../../../../m68k-atariextrabrowner-elf/lib/m68000/libc.a(printf_fphex.o)
 .rodata        0x000000000004a22c      0xea0 /Users/davidebucci/Desktop/Synchronized/Vintage/Computing/Atari/ST/brown/lib/gcc/m68k-atariextrabrowner-elf/10.2.0/../../../../m68k-atariextrabrowner-elf/lib/m68000/libc.a(fpioconst.o)
                0x000000000004a22c                __fpioconst_pow10
                0x000000000004a2fc                ___tens
 .rodata.str1.1
                0x000000000004b0cc      0xcb1 /Users/davidebucci/Desktop/Synchronized/Vintage/Computing/Atari/ST/brown/lib/gcc/m68k-atariextrabrowner-elf/10.2.0/../../../../m68k-atariextrabrowner-elf/lib/m68000/libc.a(strerror.o)
                                        0xcbb (size before relaxing)
 *fill*         0x000000000004bd7d        0x1 
 .rodata        0x000000000004bd7e      0x532 /Users/davidebucci/Desktop/Synchronized/Vintage/Computing/Atari/ST/brown/lib/gcc/m68k-atariextrabrowner-elf/10.2.0/../../../../m68k-atariextrabrowner-elf/lib/m68000/libc.a(strerror.o)
                0x000000000004bd7e                __sys_errlist
                0x000000000004bd7e                _sys_errlist
 .rodata        0x000000000004c2b0      0x100 /Users/davidebucci/Desktop/Synchronized/Vintage/Computing/Atari/ST/brown/lib/gcc/m68k-atariextrabrowner-elf/10.2.0/../../../../m68k-atariextrabrowner-elf/lib/m68000/libc.a(mp_clz_tab.o)
                0x000000000004c2b0                ___clz_tab

.rodata1
 *(.rodata1)

.eh_frame_hdr
 *(.eh_frame_hdr)
 *(.eh_frame_entry .eh_frame_entry.*)

.eh_frame       0x000000000004c3b0        0x4
 *(.eh_frame)
 .eh_frame      0x000000000004c3b0        0x0 /Users/davidebucci/Desktop/Synchronized/Vintage/Computing/Atari/ST/brown/lib/gcc/m68k-atariextrabrowner-elf/10.2.0/m68000/crtbegin.o
 .eh_frame      0x000000000004c3b0        0x4 /Users/davidebucci/Desktop/Synchronized/Vintage/Computing/Atari/ST/brown/lib/gcc/m68k-atariextrabrowner-elf/10.2.0/m68000/crtend.o
 *(.eh_frame.*)

.gcc_except_table
 *(.gcc_except_table .gcc_except_table.*)

.gnu_extab
 *(.gnu_extab*)

.exception_ranges
 *(.exception_ranges*)
                0x000000000004e3b4                . = DATA_SEGMENT_ALIGN (CONSTANT (MAXPAGESIZE), CONSTANT (COMMONPAGESIZE))

.eh_frame
 *(.eh_frame)
 *(.eh_frame.*)

.gnu_extab
 *(.gnu_extab)

.gcc_except_table
 *(.gcc_except_table .gcc_except_table.*)

.exception_ranges
 *(.exception_ranges*)

.tdata          0x000000000004e3b4        0x0
                [!provide]                        PROVIDE (__tdata_start = .)
 *(.tdata .tdata.* .gnu.linkonce.td.*)

.tbss
 *(.tbss .tbss.* .gnu.linkonce.tb.*)
 *(.tcommon)

.preinit_array  0x000000000004e3b4        0x0
                [!provide]                        PROVIDE (__preinit_array_start = .)
 *(.preinit_array)
                [!provide]                        PROVIDE (__preinit_array_end = .)

.init_array     0x000000000004e3b4        0x0
                [!provide]                        PROVIDE (__init_array_start = .)
 *(SORT_BY_INIT_PRIORITY(.init_array.*) SORT_BY_INIT_PRIORITY(.ctors.*))
 *(.init_array EXCLUDE_FILE(*crtend?.o *crtend.o *crtbegin?.o *crtbegin.o) .ctors)
                [!provide]                        PROVIDE (__init_array_end = .)

.fini_array     0x000000000004e3b4        0x0
                [!provide]                        PROVIDE (__fini_array_start = .)
 *(SORT_BY_INIT_PRIORITY(.fini_array.*) SORT_BY_INIT_PRIORITY(.dtors.*))
 *(.fini_array EXCLUDE_FILE(*crtend?.o *crtend.o *crtbegin?.o *crtbegin.o) .dtors)
                [!provide]                        PROVIDE (__fini_array_end = .)

.ctors          0x000000000004e3b4        0x8
 *crtbegin.o(.ctors)
 .ctors         0x000000000004e3b4        0x4 /Users/davidebucci/Desktop/Synchronized/Vintage/Computing/Atari/ST/brown/lib/gcc/m68k-atariextrabrowner-elf/10.2.0/m68000/crtbegin.o
 *crtbegin?.o(.ctors)
 *(EXCLUDE_FILE(*crtend?.o *crtend.o) .ctors)
 *(SORT_BY_NAME(.ctors.*))
 *(.ctors)
 .ctors         0x000000000004e3b8        0x4 /Users/davidebucci/Desktop/Synchronized/Vintage/Computing/Atari/ST/brown/lib/gcc/m68k-atariextrabrowner-elf/10.2.0/m68000/crtend.o

.dtors          0x000000000004e3bc        0x8
 *crtbegin.o(.dtors)
 .dtors         0x000000000004e3bc        0x4 /Users/davidebucci/Desktop/Synchronized/Vintage/Computing/Atari/ST/brown/lib/gcc/m68k-atariextrabrowner-elf/10.2.0/m68000/crtbegin.o
 *crtbegin?.o(.dtors)
 *(EXCLUDE_FILE(*crtend?.o *crtend.o) .dtors)
 *(SORT_BY_NAME(.dtors.*))
 *(.dtors)
 .dtors         0x000000000004e3c0        0x4 /Users/davidebucci/Desktop/Synchronized/Vintage/Computing/Atari/ST/brown/lib/gcc/m68k-atariextrabrowner-elf/10.2.0/m68000/crtend.o
                0x000000000004e3c0                ___DTOR_END__

.jcr
 *(.jcr)

.data.rel.ro
 *(.data.rel.ro.local* .gnu.linkonce.d.rel.ro.local.*)
 *(.data.rel.ro .data.rel.ro.* .gnu.linkonce.d.rel.ro.*)

.dynamic
 *(.dynamic)
                0x000000000004e3c4                . = DATA_SEGMENT_RELRO_END (., 0x0)

.got
 *(.got.plt)
 *(.igot.plt)
 *(.got)
 *(.igot)

.data           0x000000000004e3c4      0xc80
 *(.data .data.* .gnu.linkonce.d.*)
 .data          0x000000000004e3c4        0x4 /Users/davidebucci/Desktop/Synchronized/Vintage/Computing/Atari/ST/brown/lib/gcc/m68k-atariextrabrowner-elf/10.2.0/m68000/crtbegin.o
                0x000000000004e3c4                ___dso_handle
 .data          0x000000000004e3c8        0x0 /Users/davidebucci/Desktop/Synchronized/Vintage/Computing/Atari/ST/brown//../bigbrownbuild-git/mintlib-bigbrownbuild-10.2.0/startup/crt0.o
 .data          0x000000000004e3c8        0x0 /var/folders/sk/pxzc9l1n12xfhw7mpgdgdkdc0000gn/T//tqf40.elf.kOuEog.ltrans0.ltrans.o
 .data.obj      0x000000000004e3c8      0x276 /var/folders/sk/pxzc9l1n12xfhw7mpgdgdkdc0000gn/T//tqf40.elf.kOuEog.ltrans0.ltrans.o
 .data.world    0x000000000004e63e      0x400 /var/folders/sk/pxzc9l1n12xfhw7mpgdgdkdc0000gn/T//tqf40.elf.kOuEog.ltrans0.ltrans.o
 *fill*         0x000000000004ea3e        0x2 
 .data          0x000000000004ea40        0x0 /Users/davidebucci/Desktop/Synchronized/Vintage/Computing/Atari/ST/brown/lib/gcc/m68k-atariextrabrowner-elf/10.2.0/../../../../m68k-atariextrabrowner-elf/lib/m68000/libc.a(checkcpu.o)
 .data          0x000000000004ea40        0x8 /Users/davidebucci/Desktop/Synchronized/Vintage/Computing/Atari/ST/brown/lib/gcc/m68k-atariextrabrowner-elf/10.2.0/../../../../m68k-atariextrabrowner-elf/lib/m68000/libc.a(crtinit.o)
 .data          0x000000000004ea48        0x0 /Users/davidebucci/Desktop/Synchronized/Vintage/Computing/Atari/ST/brown/lib/gcc/m68k-atariextrabrowner-elf/10.2.0/../../../../m68k-atariextrabrowner-elf/lib/m68000/libc.a(getenv.o)
 .data          0x000000000004ea48      0x12a /Users/davidebucci/Desktop/Synchronized/Vintage/Computing/Atari/ST/brown/lib/gcc/m68k-atariextrabrowner-elf/10.2.0/../../../../m68k-atariextrabrowner-elf/lib/m68000/libc.a(globals.o)
                0x000000000004ea48                ___stdio_head
                0x000000000004ea4c                _stderr
                0x000000000004eaa4                _stdout
                0x000000000004eafc                _stdin
                0x000000000004eb54                _program_invocation_short_name
                0x000000000004eb58                _program_invocation_name
                0x000000000004eb5c                __app
                0x000000000004eb5e                ___libc_argv
                0x000000000004eb6a                ___libc_argc
                0x000000000004eb6e                ___libc_enable_secure
 *fill*         0x000000000004eb72        0x2 
 .data          0x000000000004eb74        0x0 /Users/davidebucci/Desktop/Synchronized/Vintage/Computing/Atari/ST/brown/lib/gcc/m68k-atariextrabrowner-elf/10.2.0/../../../../m68k-atariextrabrowner-elf/lib/m68000/libc.a(heapbase.o)
 .data          0x000000000004eb74       0x1b /Users/davidebucci/Desktop/Synchronized/Vintage/Computing/Atari/ST/brown/lib/gcc/m68k-atariextrabrowner-elf/10.2.0/../../../../m68k-atariextrabrowner-elf/lib/m68000/libc.a(ident.o)
                0x000000000004eb74                ___Ident_gnulib
 *fill*         0x000000000004eb8f        0x1 
 .data          0x000000000004eb90        0x0 /Users/davidebucci/Desktop/Synchronized/Vintage/Computing/Atari/ST/brown/lib/gcc/m68k-atariextrabrowner-elf/10.2.0/../../../../m68k-atariextrabrowner-elf/lib/m68000/libc.a(ident_dummy_gem.o)
 .data          0x000000000004eb90        0x0 /Users/davidebucci/Desktop/Synchronized/Vintage/Computing/Atari/ST/brown/lib/gcc/m68k-atariextrabrowner-elf/10.2.0/../../../../m68k-atariextrabrowner-elf/lib/m68000/libc.a(inistack.o)
 .data          0x000000000004eb90        0x0 /Users/davidebucci/Desktop/Synchronized/Vintage/Computing/Atari/ST/brown/lib/gcc/m68k-atariextrabrowner-elf/10.2.0/../../../../m68k-atariextrabrowner-elf/lib/m68000/libc.a(main.o)
 .data          0x000000000004eb90       0x14 /Users/davidebucci/Desktop/Synchronized/Vintage/Computing/Atari/ST/brown/lib/gcc/m68k-atariextrabrowner-elf/10.2.0/../../../../m68k-atariextrabrowner-elf/lib/m68000/libc.a(malloc.o)
                0x000000000004eb90                __mchunk_free_list
 .data          0x000000000004eba4        0x0 /Users/davidebucci/Desktop/Synchronized/Vintage/Computing/Atari/ST/brown/lib/gcc/m68k-atariextrabrowner-elf/10.2.0/../../../../m68k-atariextrabrowner-elf/lib/m68000/libc.a(realloc.o)
 .data          0x000000000004eba4        0x0 /Users/davidebucci/Desktop/Synchronized/Vintage/Computing/Atari/ST/brown/lib/gcc/m68k-atariextrabrowner-elf/10.2.0/../../../../m68k-atariextrabrowner-elf/lib/m68000/libc.a(setstack.o)
 .data          0x000000000004eba4        0x4 /Users/davidebucci/Desktop/Synchronized/Vintage/Computing/Atari/ST/brown/lib/gcc/m68k-atariextrabrowner-elf/10.2.0/../../../../m68k-atariextrabrowner-elf/lib/m68000/libc.a(stksiz.o)
                0x000000000004eba4                __stksize
 .data          0x000000000004eba8        0x0 /Users/davidebucci/Desktop/Synchronized/Vintage/Computing/Atari/ST/brown/lib/gcc/m68k-atariextrabrowner-elf/10.2.0/../../../../m68k-atariextrabrowner-elf/lib/m68000/libc.a(unx2dos.o)
 .data          0x000000000004eba8        0x0 /Users/davidebucci/Desktop/Synchronized/Vintage/Computing/Atari/ST/brown/lib/gcc/m68k-atariextrabrowner-elf/10.2.0/../../../../m68k-atariextrabrowner-elf/lib/m68000/libc.a(initsig.o)
 .data          0x000000000004eba8        0x0 /Users/davidebucci/Desktop/Synchronized/Vintage/Computing/Atari/ST/brown/lib/gcc/m68k-atariextrabrowner-elf/10.2.0/../../../../m68k-atariextrabrowner-elf/lib/m68000/libc.a(binmode.o)
 .data          0x000000000004eba8        0x0 /Users/davidebucci/Desktop/Synchronized/Vintage/Computing/Atari/ST/brown/lib/gcc/m68k-atariextrabrowner-elf/10.2.0/../../../../m68k-atariextrabrowner-elf/lib/m68000/libc.a(defmode.o)
 .data          0x000000000004eba8        0x0 /Users/davidebucci/Desktop/Synchronized/Vintage/Computing/Atari/ST/brown/lib/gcc/m68k-atariextrabrowner-elf/10.2.0/../../../../m68k-atariextrabrowner-elf/lib/m68000/libc.a(fclose.o)
 .data          0x000000000004eba8        0x0 /Users/davidebucci/Desktop/Synchronized/Vintage/Computing/Atari/ST/brown/lib/gcc/m68k-atariextrabrowner-elf/10.2.0/../../../../m68k-atariextrabrowner-elf/lib/m68000/libc.a(fgets.o)
 .data          0x000000000004eba8        0x0 /Users/davidebucci/Desktop/Synchronized/Vintage/Computing/Atari/ST/brown/lib/gcc/m68k-atariextrabrowner-elf/10.2.0/../../../../m68k-atariextrabrowner-elf/lib/m68000/libc.a(fileno.o)
 .data          0x000000000004eba8        0x0 /Users/davidebucci/Desktop/Synchronized/Vintage/Computing/Atari/ST/brown/lib/gcc/m68k-atariextrabrowner-elf/10.2.0/../../../../m68k-atariextrabrowner-elf/lib/m68000/libc.a(fopen.o)
 .data          0x000000000004eba8        0x0 /Users/davidebucci/Desktop/Synchronized/Vintage/Computing/Atari/ST/brown/lib/gcc/m68k-atariextrabrowner-elf/10.2.0/../../../../m68k-atariextrabrowner-elf/lib/m68000/libc.a(getchar.o)
 .data          0x000000000004eba8        0x0 /Users/davidebucci/Desktop/Synchronized/Vintage/Computing/Atari/ST/brown/lib/gcc/m68k-atariextrabrowner-elf/10.2.0/../../../../m68k-atariextrabrowner-elf/lib/m68000/libc.a(internals.o)
 .data          0x000000000004eba8        0x0 /Users/davidebucci/Desktop/Synchronized/Vintage/Computing/Atari/ST/brown/lib/gcc/m68k-atariextrabrowner-elf/10.2.0/../../../../m68k-atariextrabrowner-elf/lib/m68000/libc.a(newstream.o)
 .data          0x000000000004eba8        0x0 /Users/davidebucci/Desktop/Synchronized/Vintage/Computing/Atari/ST/brown/lib/gcc/m68k-atariextrabrowner-elf/10.2.0/../../../../m68k-atariextrabrowner-elf/lib/m68000/libc.a(setvbuf.o)
 .data          0x000000000004eba8        0x0 /Users/davidebucci/Desktop/Synchronized/Vintage/Computing/Atari/ST/brown/lib/gcc/m68k-atariextrabrowner-elf/10.2.0/../../../../m68k-atariextrabrowner-elf/lib/m68000/libc.a(stdio_init.o)
 .data          0x000000000004eba8        0x0 /Users/davidebucci/Desktop/Synchronized/Vintage/Computing/Atari/ST/brown/lib/gcc/m68k-atariextrabrowner-elf/10.2.0/../../../../m68k-atariextrabrowner-elf/lib/m68000/libc.a(sysd-stdio.o)
 .data          0x000000000004eba8        0x0 /Users/davidebucci/Desktop/Synchronized/Vintage/Computing/Atari/ST/brown/lib/gcc/m68k-atariextrabrowner-elf/10.2.0/../../../../m68k-atariextrabrowner-elf/lib/m68000/libc.a(atoi.o)
 .data          0x000000000004eba8        0x0 /Users/davidebucci/Desktop/Synchronized/Vintage/Computing/Atari/ST/brown/lib/gcc/m68k-atariextrabrowner-elf/10.2.0/../../../../m68k-atariextrabrowner-elf/lib/m68000/libc.a(exit.o)
 .data          0x000000000004eba8        0x0 /Users/davidebucci/Desktop/Synchronized/Vintage/Computing/Atari/ST/brown/lib/gcc/m68k-atariextrabrowner-elf/10.2.0/../../../../m68k-atariextrabrowner-elf/lib/m68000/libc.a(strtol.o)
 .data          0x000000000004eba8        0x0 /Users/davidebucci/Desktop/Synchronized/Vintage/Computing/Atari/ST/brown/lib/gcc/m68k-atariextrabrowner-elf/10.2.0/../../../../m68k-atariextrabrowner-elf/lib/m68000/libc.a(bcopy.o)
 .data          0x000000000004eba8        0x0 /Users/davidebucci/Desktop/Synchronized/Vintage/Computing/Atari/ST/brown/lib/gcc/m68k-atariextrabrowner-elf/10.2.0/../../../../m68k-atariextrabrowner-elf/lib/m68000/libc.a(bzero.o)
 .data          0x000000000004eba8        0x0 /Users/davidebucci/Desktop/Synchronized/Vintage/Computing/Atari/ST/brown/lib/gcc/m68k-atariextrabrowner-elf/10.2.0/../../../../m68k-atariextrabrowner-elf/lib/m68000/libc.a(memccpy.o)
 .data          0x000000000004eba8        0x0 /Users/davidebucci/Desktop/Synchronized/Vintage/Computing/Atari/ST/brown/lib/gcc/m68k-atariextrabrowner-elf/10.2.0/../../../../m68k-atariextrabrowner-elf/lib/m68000/libc.a(memset.o)
 .data          0x000000000004eba8        0x0 /Users/davidebucci/Desktop/Synchronized/Vintage/Computing/Atari/ST/brown/lib/gcc/m68k-atariextrabrowner-elf/10.2.0/../../../../m68k-atariextrabrowner-elf/lib/m68000/libc.a(strcmp.o)
 .data          0x000000000004eba8        0x0 /Users/davidebucci/Desktop/Synchronized/Vintage/Computing/Atari/ST/brown/lib/gcc/m68k-atariextrabrowner-elf/10.2.0/../../../../m68k-atariextrabrowner-elf/lib/m68000/libc.a(strlen.o)
 .data          0x000000000004eba8        0x0 /Users/davidebucci/Desktop/Synchronized/Vintage/Computing/Atari/ST/brown/lib/gcc/m68k-atariextrabrowner-elf/10.2.0/../../../../m68k-atariextrabrowner-elf/lib/m68000/libc.a(strncat.o)
 .data          0x000000000004eba8        0x0 /Users/davidebucci/Desktop/Synchronized/Vintage/Computing/Atari/ST/brown/lib/gcc/m68k-atariextrabrowner-elf/10.2.0/../../../../m68k-atariextrabrowner-elf/lib/m68000/libc.a(strncmp.o)
 .data          0x000000000004eba8        0x0 /Users/davidebucci/Desktop/Synchronized/Vintage/Computing/Atari/ST/brown/lib/gcc/m68k-atariextrabrowner-elf/10.2.0/../../../../m68k-atariextrabrowner-elf/lib/m68000/libc.a(strncpy.o)
 .data          0x000000000004eba8        0x0 /Users/davidebucci/Desktop/Synchronized/Vintage/Computing/Atari/ST/brown/lib/gcc/m68k-atariextrabrowner-elf/10.2.0/../../../../m68k-atariextrabrowner-elf/lib/m68000/libc.a(strrchr.o)
 .data          0x000000000004eba8        0x0 /Users/davidebucci/Desktop/Synchronized/Vintage/Computing/Atari/ST/brown/lib/gcc/m68k-atariextrabrowner-elf/10.2.0/../../../../m68k-atariextrabrowner-elf/lib/m68000/libc.a(close.o)
 .data          0x000000000004eba8        0x0 /Users/davidebucci/Desktop/Synchronized/Vintage/Computing/Atari/ST/brown/lib/gcc/m68k-atariextrabrowner-elf/10.2.0/../../../../m68k-atariextrabrowner-elf/lib/m68000/libc.a(dup2.o)
 .data          0x000000000004eba8        0x0 /Users/davidebucci/Desktop/Synchronized/Vintage/Computing/Atari/ST/brown/lib/gcc/m68k-atariextrabrowner-elf/10.2.0/../../../../m68k-atariextrabrowner-elf/lib/m68000/libc.a(fstat.o)
 .data          0x000000000004eba8        0x0 /Users/davidebucci/Desktop/Synchronized/Vintage/Computing/Atari/ST/brown/lib/gcc/m68k-atariextrabrowner-elf/10.2.0/../../../../m68k-atariextrabrowner-elf/lib/m68000/libc.a(getpagesize.o)
 .data          0x000000000004eba8        0x0 /Users/davidebucci/Desktop/Synchronized/Vintage/Computing/Atari/ST/brown/lib/gcc/m68k-atariextrabrowner-elf/10.2.0/../../../../m68k-atariextrabrowner-elf/lib/m68000/libc.a(lseek.o)
 .data          0x000000000004eba8        0x4 /Users/davidebucci/Desktop/Synchronized/Vintage/Computing/Atari/ST/brown/lib/gcc/m68k-atariextrabrowner-elf/10.2.0/../../../../m68k-atariextrabrowner-elf/lib/m68000/libc.a(open.o)
                0x000000000004eba8                ___current_umask
 .data          0x000000000004ebac       0x10 /Users/davidebucci/Desktop/Synchronized/Vintage/Computing/Atari/ST/brown/lib/gcc/m68k-atariextrabrowner-elf/10.2.0/../../../../m68k-atariextrabrowner-elf/lib/m68000/libc.a(read.o)
                0x000000000004ebb0                ___ltchars
                0x000000000004ebb6                ___tchars
 .data          0x000000000004ebbc        0x0 /Users/davidebucci/Desktop/Synchronized/Vintage/Computing/Atari/ST/brown/lib/gcc/m68k-atariextrabrowner-elf/10.2.0/../../../../m68k-atariextrabrowner-elf/lib/m68000/libc.a(sbrk.o)
 .data          0x000000000004ebbc        0x0 /Users/davidebucci/Desktop/Synchronized/Vintage/Computing/Atari/ST/brown/lib/gcc/m68k-atariextrabrowner-elf/10.2.0/../../../../m68k-atariextrabrowner-elf/lib/m68000/libc.a(sysctl.o)
 .data          0x000000000004ebbc        0x0 /Users/davidebucci/Desktop/Synchronized/Vintage/Computing/Atari/ST/brown/lib/gcc/m68k-atariextrabrowner-elf/10.2.0/../../../../m68k-atariextrabrowner-elf/lib/m68000/libc.a(write.o)
 .data          0x000000000004ebbc       0x1d /Users/davidebucci/Desktop/Synchronized/Vintage/Computing/Atari/ST/brown/lib/gcc/m68k-atariextrabrowner-elf/10.2.0/../../../../m68k-atariextrabrowner-elf/lib/m68000/libc.a(ident_sock.o)
                0x000000000004ebbc                ___Ident_socketlib
 *fill*         0x000000000004ebd9        0x3 
 .data          0x000000000004ebdc        0x0 /Users/davidebucci/Desktop/Synchronized/Vintage/Computing/Atari/ST/brown/lib/gcc/m68k-atariextrabrowner-elf/10.2.0/../../../../m68k-atariextrabrowner-elf/lib/m68000/libc.a(assert.o)
 .data          0x000000000004ebdc        0x0 /Users/davidebucci/Desktop/Synchronized/Vintage/Computing/Atari/ST/brown/lib/gcc/m68k-atariextrabrowner-elf/10.2.0/../../../../m68k-atariextrabrowner-elf/lib/m68000/libc.a(console.o)
 .data          0x000000000004ebdc      0x404 /Users/davidebucci/Desktop/Synchronized/Vintage/Computing/Atari/ST/brown/lib/gcc/m68k-atariextrabrowner-elf/10.2.0/../../../../m68k-atariextrabrowner-elf/lib/m68000/libc.a(ctype.o)
                0x000000000004ebdc                __ctype
 .data          0x000000000004efe0        0x0 /Users/davidebucci/Desktop/Synchronized/Vintage/Computing/Atari/ST/brown/lib/gcc/m68k-atariextrabrowner-elf/10.2.0/../../../../m68k-atariextrabrowner-elf/lib/m68000/libc.a(do_fstat.o)
 .data          0x000000000004efe0        0x0 /Users/davidebucci/Desktop/Synchronized/Vintage/Computing/Atari/ST/brown/lib/gcc/m68k-atariextrabrowner-elf/10.2.0/../../../../m68k-atariextrabrowner-elf/lib/m68000/libc.a(enoent.o)
 .data          0x000000000004efe0        0x0 /Users/davidebucci/Desktop/Synchronized/Vintage/Computing/Atari/ST/brown/lib/gcc/m68k-atariextrabrowner-elf/10.2.0/../../../../m68k-atariextrabrowner-elf/lib/m68000/libc.a(getcookie.o)
 .data          0x000000000004efe0        0x0 /Users/davidebucci/Desktop/Synchronized/Vintage/Computing/Atari/ST/brown/lib/gcc/m68k-atariextrabrowner-elf/10.2.0/../../../../m68k-atariextrabrowner-elf/lib/m68000/libc.a(getsysvar.o)
 .data          0x000000000004efe0        0x4 /Users/davidebucci/Desktop/Synchronized/Vintage/Computing/Atari/ST/brown/lib/gcc/m68k-atariextrabrowner-elf/10.2.0/../../../../m68k-atariextrabrowner-elf/lib/m68000/libc.a(inode.o)
                0x000000000004efe0                ___inode
 .data          0x000000000004efe4        0x0 /Users/davidebucci/Desktop/Synchronized/Vintage/Computing/Atari/ST/brown/lib/gcc/m68k-atariextrabrowner-elf/10.2.0/../../../../m68k-atariextrabrowner-elf/lib/m68000/libc.a(isatty.o)
 .data          0x000000000004efe4        0x0 /Users/davidebucci/Desktop/Synchronized/Vintage/Computing/Atari/ST/brown/lib/gcc/m68k-atariextrabrowner-elf/10.2.0/../../../../m68k-atariextrabrowner-elf/lib/m68000/libc.a(isctty.o)
 .data          0x000000000004efe4        0x0 /Users/davidebucci/Desktop/Synchronized/Vintage/Computing/Atari/ST/brown/lib/gcc/m68k-atariextrabrowner-elf/10.2.0/../../../../m68k-atariextrabrowner-elf/lib/m68000/libc.a(libc_exit.o)
 .data          0x000000000004efe4        0x0 /Users/davidebucci/Desktop/Synchronized/Vintage/Computing/Atari/ST/brown/lib/gcc/m68k-atariextrabrowner-elf/10.2.0/../../../../m68k-atariextrabrowner-elf/lib/m68000/libc.a(quickstat.o)
 .data          0x000000000004efe4        0x0 /Users/davidebucci/Desktop/Synchronized/Vintage/Computing/Atari/ST/brown/lib/gcc/m68k-atariextrabrowner-elf/10.2.0/../../../../m68k-atariextrabrowner-elf/lib/m68000/libc.a(toxxx.o)
 .data          0x000000000004efe4        0x0 /Users/davidebucci/Desktop/Synchronized/Vintage/Computing/Atari/ST/brown/lib/gcc/m68k-atariextrabrowner-elf/10.2.0/../../../../m68k-atariextrabrowner-elf/lib/m68000/libc.a(unixtime.o)
 .data          0x000000000004efe4        0x0 /Users/davidebucci/Desktop/Synchronized/Vintage/Computing/Atari/ST/brown/lib/gcc/m68k-atariextrabrowner-elf/10.2.0/../../../../m68k-atariextrabrowner-elf/lib/m68000/libc.a(raise.o)
 .data          0x000000000004efe4        0x0 /Users/davidebucci/Desktop/Synchronized/Vintage/Computing/Atari/ST/brown/lib/gcc/m68k-atariextrabrowner-elf/10.2.0/../../../../m68k-atariextrabrowner-elf/lib/m68000/libc.a(fcloseall.o)
 .data          0x000000000004efe4        0x0 /Users/davidebucci/Desktop/Synchronized/Vintage/Computing/Atari/ST/brown/lib/gcc/m68k-atariextrabrowner-elf/10.2.0/../../../../m68k-atariextrabrowner-elf/lib/m68000/libc.a(fflush.o)
 .data          0x000000000004efe4        0x0 /Users/davidebucci/Desktop/Synchronized/Vintage/Computing/Atari/ST/brown/lib/gcc/m68k-atariextrabrowner-elf/10.2.0/../../../../m68k-atariextrabrowner-elf/lib/m68000/libc.a(itoa-digits.o)
 .data          0x000000000004efe4        0x0 /Users/davidebucci/Desktop/Synchronized/Vintage/Computing/Atari/ST/brown/lib/gcc/m68k-atariextrabrowner-elf/10.2.0/../../../../m68k-atariextrabrowner-elf/lib/m68000/libc.a(strtoul.o)
 .data          0x000000000004efe4        0x0 /Users/davidebucci/Desktop/Synchronized/Vintage/Computing/Atari/ST/brown/lib/gcc/m68k-atariextrabrowner-elf/10.2.0/../../../../m68k-atariextrabrowner-elf/lib/m68000/libc.a(strchr.o)
 .data          0x000000000004efe4        0xc /Users/davidebucci/Desktop/Synchronized/Vintage/Computing/Atari/ST/brown/lib/gcc/m68k-atariextrabrowner-elf/10.2.0/../../../../m68k-atariextrabrowner-elf/lib/m68000/libc.a(localtime.o)
                0x000000000004efe4                _tzname
 .data          0x000000000004eff0        0x0 /Users/davidebucci/Desktop/Synchronized/Vintage/Computing/Atari/ST/brown/lib/gcc/m68k-atariextrabrowner-elf/10.2.0/../../../../m68k-atariextrabrowner-elf/lib/m68000/libc.a(access.o)
 .data          0x000000000004eff0        0x0 /Users/davidebucci/Desktop/Synchronized/Vintage/Computing/Atari/ST/brown/lib/gcc/m68k-atariextrabrowner-elf/10.2.0/../../../../m68k-atariextrabrowner-elf/lib/m68000/libc.a(chmod.o)
 .data          0x000000000004eff0        0x2 /Users/davidebucci/Desktop/Synchronized/Vintage/Computing/Atari/ST/brown/lib/gcc/m68k-atariextrabrowner-elf/10.2.0/../../../../m68k-atariextrabrowner-elf/lib/m68000/libc.a(getegid.o)
 *fill*         0x000000000004eff2        0x2 
 .data          0x000000000004eff4        0x2 /Users/davidebucci/Desktop/Synchronized/Vintage/Computing/Atari/ST/brown/lib/gcc/m68k-atariextrabrowner-elf/10.2.0/../../../../m68k-atariextrabrowner-elf/lib/m68000/libc.a(geteuid.o)
 *fill*         0x000000000004eff6        0x2 
 .data          0x000000000004eff8        0x2 /Users/davidebucci/Desktop/Synchronized/Vintage/Computing/Atari/ST/brown/lib/gcc/m68k-atariextrabrowner-elf/10.2.0/../../../../m68k-atariextrabrowner-elf/lib/m68000/libc.a(getgid.o)
 *fill*         0x000000000004effa        0x2 
 .data          0x000000000004effc        0x0 /Users/davidebucci/Desktop/Synchronized/Vintage/Computing/Atari/ST/brown/lib/gcc/m68k-atariextrabrowner-elf/10.2.0/../../../../m68k-atariextrabrowner-elf/lib/m68000/libc.a(getgroups.o)
 .data          0x000000000004effc        0x2 /Users/davidebucci/Desktop/Synchronized/Vintage/Computing/Atari/ST/brown/lib/gcc/m68k-atariextrabrowner-elf/10.2.0/../../../../m68k-atariextrabrowner-elf/lib/m68000/libc.a(getpid.o)
 *fill*         0x000000000004effe        0x2 
 .data          0x000000000004f000        0x0 /Users/davidebucci/Desktop/Synchronized/Vintage/Computing/Atari/ST/brown/lib/gcc/m68k-atariextrabrowner-elf/10.2.0/../../../../m68k-atariextrabrowner-elf/lib/m68000/libc.a(getuid.o)
 .data          0x000000000004f000        0x8 /Users/davidebucci/Desktop/Synchronized/Vintage/Computing/Atari/ST/brown/lib/gcc/m68k-atariextrabrowner-elf/10.2.0/../../../../m68k-atariextrabrowner-elf/lib/m68000/libc.a(ioctl.o)
                0x000000000004f000                __ldisc
                0x000000000004f004                __ttydisc
 .data          0x000000000004f008        0x2 /Users/davidebucci/Desktop/Synchronized/Vintage/Computing/Atari/ST/brown/lib/gcc/m68k-atariextrabrowner-elf/10.2.0/../../../../m68k-atariextrabrowner-elf/lib/m68000/libc.a(kill.o)
 *fill*         0x000000000004f00a        0x2 
 .data          0x000000000004f00c        0x0 /Users/davidebucci/Desktop/Synchronized/Vintage/Computing/Atari/ST/brown/lib/gcc/m68k-atariextrabrowner-elf/10.2.0/../../../../m68k-atariextrabrowner-elf/lib/m68000/libc.a(time.o)
 .data          0x000000000004f00c        0x0 /Users/davidebucci/Desktop/Synchronized/Vintage/Computing/Atari/ST/brown/lib/gcc/m68k-atariextrabrowner-elf/10.2.0/../../../../m68k-atariextrabrowner-elf/lib/m68000/libc.a(abort.o)
 .data          0x000000000004f00c        0x0 /Users/davidebucci/Desktop/Synchronized/Vintage/Computing/Atari/ST/brown/lib/gcc/m68k-atariextrabrowner-elf/10.2.0/../../../../m68k-atariextrabrowner-elf/lib/m68000/libc.a(alglobal.o)
 .data          0x000000000004f00c        0x0 /Users/davidebucci/Desktop/Synchronized/Vintage/Computing/Atari/ST/brown/lib/gcc/m68k-atariextrabrowner-elf/10.2.0/../../../../m68k-atariextrabrowner-elf/lib/m68000/libc.a(calloc.o)
 .data          0x000000000004f00c        0x0 /Users/davidebucci/Desktop/Synchronized/Vintage/Computing/Atari/ST/brown/lib/gcc/m68k-atariextrabrowner-elf/10.2.0/../../../../m68k-atariextrabrowner-elf/lib/m68000/libc.a(do_stat.o)
 .data          0x000000000004f00c        0x0 /Users/davidebucci/Desktop/Synchronized/Vintage/Computing/Atari/ST/brown/lib/gcc/m68k-atariextrabrowner-elf/10.2.0/../../../../m68k-atariextrabrowner-elf/lib/m68000/libc.a(uidgid.o)
 .data          0x000000000004f00c        0x0 /Users/davidebucci/Desktop/Synchronized/Vintage/Computing/Atari/ST/brown/lib/gcc/m68k-atariextrabrowner-elf/10.2.0/../../../../m68k-atariextrabrowner-elf/lib/m68000/libc.a(getpwuid.o)
 .data          0x000000000004f00c        0x0 /Users/davidebucci/Desktop/Synchronized/Vintage/Computing/Atari/ST/brown/lib/gcc/m68k-atariextrabrowner-elf/10.2.0/../../../../m68k-atariextrabrowner-elf/lib/m68000/libc.a(getpwuid_r.o)
 .data          0x000000000004f00c        0x0 /Users/davidebucci/Desktop/Synchronized/Vintage/Computing/Atari/ST/brown/lib/gcc/m68k-atariextrabrowner-elf/10.2.0/../../../../m68k-atariextrabrowner-elf/lib/m68000/libc.a(grp.o)
 .data          0x000000000004f00c        0x0 /Users/davidebucci/Desktop/Synchronized/Vintage/Computing/Atari/ST/brown/lib/gcc/m68k-atariextrabrowner-elf/10.2.0/../../../../m68k-atariextrabrowner-elf/lib/m68000/libc.a(rewind.o)
 .data          0x000000000004f00c        0x0 /Users/davidebucci/Desktop/Synchronized/Vintage/Computing/Atari/ST/brown/lib/gcc/m68k-atariextrabrowner-elf/10.2.0/../../../../m68k-atariextrabrowner-elf/lib/m68000/libc.a(asctime.o)
 .data          0x000000000004f00c        0x0 /Users/davidebucci/Desktop/Synchronized/Vintage/Computing/Atari/ST/brown/lib/gcc/m68k-atariextrabrowner-elf/10.2.0/../../../../m68k-atariextrabrowner-elf/lib/m68000/libc.a(strftime.o)
 .data          0x000000000004f00c        0x4 /Users/davidebucci/Desktop/Synchronized/Vintage/Computing/Atari/ST/brown/lib/gcc/m68k-atariextrabrowner-elf/10.2.0/../../../../m68k-atariextrabrowner-elf/lib/m68000/libc.a(gettimeofday.o)
 .data          0x000000000004f010        0x0 /Users/davidebucci/Desktop/Synchronized/Vintage/Computing/Atari/ST/brown/lib/gcc/m68k-atariextrabrowner-elf/10.2.0/../../../../m68k-atariextrabrowner-elf/lib/m68000/libc.a(setlocale.o)
 .data          0x000000000004f010        0x0 /Users/davidebucci/Desktop/Synchronized/Vintage/Computing/Atari/ST/brown/lib/gcc/m68k-atariextrabrowner-elf/10.2.0/../../../../m68k-atariextrabrowner-elf/lib/m68000/libc.a(fgetpwent_r.o)
 .data          0x000000000004f010        0x0 /Users/davidebucci/Desktop/Synchronized/Vintage/Computing/Atari/ST/brown/lib/gcc/m68k-atariextrabrowner-elf/10.2.0/../../../../m68k-atariextrabrowner-elf/lib/m68000/libc.a(clearerr.o)
 .data          0x000000000004f010        0x0 /Users/davidebucci/Desktop/Synchronized/Vintage/Computing/Atari/ST/brown/lib/gcc/m68k-atariextrabrowner-elf/10.2.0/../../../../m68k-atariextrabrowner-elf/lib/m68000/libc.a(fprintf.o)
 .data          0x000000000004f010        0x0 /Users/davidebucci/Desktop/Synchronized/Vintage/Computing/Atari/ST/brown/lib/gcc/m68k-atariextrabrowner-elf/10.2.0/../../../../m68k-atariextrabrowner-elf/lib/m68000/libc.a(fputc.o)
 .data          0x000000000004f010        0x0 /Users/davidebucci/Desktop/Synchronized/Vintage/Computing/Atari/ST/brown/lib/gcc/m68k-atariextrabrowner-elf/10.2.0/../../../../m68k-atariextrabrowner-elf/lib/m68000/libc.a(fseek.o)
 .data          0x000000000004f010        0x0 /Users/davidebucci/Desktop/Synchronized/Vintage/Computing/Atari/ST/brown/lib/gcc/m68k-atariextrabrowner-elf/10.2.0/../../../../m68k-atariextrabrowner-elf/lib/m68000/libc.a(fwrite.o)
 .data          0x000000000004f010        0x0 /Users/davidebucci/Desktop/Synchronized/Vintage/Computing/Atari/ST/brown/lib/gcc/m68k-atariextrabrowner-elf/10.2.0/../../../../m68k-atariextrabrowner-elf/lib/m68000/libc.a(sprintf.o)
 .data          0x000000000004f010        0x0 /Users/davidebucci/Desktop/Synchronized/Vintage/Computing/Atari/ST/brown/lib/gcc/m68k-atariextrabrowner-elf/10.2.0/../../../../m68k-atariextrabrowner-elf/lib/m68000/libc.a(ungetc.o)
 .data          0x000000000004f010        0x0 /Users/davidebucci/Desktop/Synchronized/Vintage/Computing/Atari/ST/brown/lib/gcc/m68k-atariextrabrowner-elf/10.2.0/../../../../m68k-atariextrabrowner-elf/lib/m68000/libc.a(vfprintf.o)
 .data          0x000000000004f010        0x0 /Users/davidebucci/Desktop/Synchronized/Vintage/Computing/Atari/ST/brown/lib/gcc/m68k-atariextrabrowner-elf/10.2.0/../../../../m68k-atariextrabrowner-elf/lib/m68000/libc.a(vsprintf.o)
 .data          0x000000000004f010        0x0 /Users/davidebucci/Desktop/Synchronized/Vintage/Computing/Atari/ST/brown/lib/gcc/m68k-atariextrabrowner-elf/10.2.0/../../../../m68k-atariextrabrowner-elf/lib/m68000/libc.a(memchr.o)
 .data          0x000000000004f010        0x0 /Users/davidebucci/Desktop/Synchronized/Vintage/Computing/Atari/ST/brown/lib/gcc/m68k-atariextrabrowner-elf/10.2.0/../../../../m68k-atariextrabrowner-elf/lib/m68000/libc.a(mempcpy.o)
 .data          0x000000000004f010        0x0 /Users/davidebucci/Desktop/Synchronized/Vintage/Computing/Atari/ST/brown/lib/gcc/m68k-atariextrabrowner-elf/10.2.0/../../../../m68k-atariextrabrowner-elf/lib/m68000/libc.a(strcpy.o)
 .data          0x000000000004f010        0x0 /Users/davidebucci/Desktop/Synchronized/Vintage/Computing/Atari/ST/brown/lib/gcc/m68k-atariextrabrowner-elf/10.2.0/../../../../m68k-atariextrabrowner-elf/lib/m68000/libc.a(strerror_r.o)
 .data          0x000000000004f010        0x0 /Users/davidebucci/Desktop/Synchronized/Vintage/Computing/Atari/ST/brown/lib/gcc/m68k-atariextrabrowner-elf/10.2.0/../../../../m68k-atariextrabrowner-elf/lib/m68000/libc.a(strnlen.o)
 .data          0x000000000004f010        0x0 /Users/davidebucci/Desktop/Synchronized/Vintage/Computing/Atari/ST/brown/lib/gcc/m68k-atariextrabrowner-elf/10.2.0/../../../../m68k-atariextrabrowner-elf/lib/m68000/libc.a(_itoa.o)
 .data          0x000000000004f010        0x0 /Users/davidebucci/Desktop/Synchronized/Vintage/Computing/Atari/ST/brown/lib/gcc/m68k-atariextrabrowner-elf/10.2.0/../../../../m68k-atariextrabrowner-elf/lib/m68000/libc.a(lockfile.o)
 .data          0x000000000004f010        0x0 /Users/davidebucci/Desktop/Synchronized/Vintage/Computing/Atari/ST/brown/lib/gcc/m68k-atariextrabrowner-elf/10.2.0/../../../../m68k-atariextrabrowner-elf/lib/m68000/libc.a(printf_fp.o)
 .data          0x000000000004f010        0x0 /Users/davidebucci/Desktop/Synchronized/Vintage/Computing/Atari/ST/brown/lib/gcc/m68k-atariextrabrowner-elf/10.2.0/../../../../m68k-atariextrabrowner-elf/lib/m68000/libc.a(printf_fphex.o)
 .data          0x000000000004f010        0x0 /Users/davidebucci/Desktop/Synchronized/Vintage/Computing/Atari/ST/brown/lib/gcc/m68k-atariextrabrowner-elf/10.2.0/../../../../m68k-atariextrabrowner-elf/lib/m68000/libc.a(reg-printf.o)
 .data          0x000000000004f010        0x0 /Users/davidebucci/Desktop/Synchronized/Vintage/Computing/Atari/ST/brown/lib/gcc/m68k-atariextrabrowner-elf/10.2.0/../../../../m68k-atariextrabrowner-elf/lib/m68000/libc.a(fpioconst.o)
 .data          0x000000000004f010       0x16 /Users/davidebucci/Desktop/Synchronized/Vintage/Computing/Atari/ST/brown/lib/gcc/m68k-atariextrabrowner-elf/10.2.0/../../../../m68k-atariextrabrowner-elf/lib/m68000/libc.a(strerror.o)
                0x000000000004f022                __sys_nerr
                0x000000000004f022                _sys_nerr
 *fill*         0x000000000004f026        0x2 
 .data          0x000000000004f028        0x0 /Users/davidebucci/Desktop/Synchronized/Vintage/Computing/Atari/ST/brown/lib/gcc/m68k-atariextrabrowner-elf/10.2.0/../../../../m68k-atariextrabrowner-elf/lib/m68000/libc.a(dbl2mpn.o)
 .data          0x000000000004f028        0x0 /Users/davidebucci/Desktop/Synchronized/Vintage/Computing/Atari/ST/brown/lib/gcc/m68k-atariextrabrowner-elf/10.2.0/../../../../m68k-atariextrabrowner-elf/lib/m68000/libc.a(ldbl2mpn.o)
 .data          0x000000000004f028        0x0 /Users/davidebucci/Desktop/Synchronized/Vintage/Computing/Atari/ST/brown/lib/gcc/m68k-atariextrabrowner-elf/10.2.0/../../../../m68k-atariextrabrowner-elf/lib/m68000/libc.a(mp_clz_tab.o)
 .data          0x000000000004f028        0x0 /Users/davidebucci/Desktop/Synchronized/Vintage/Computing/Atari/ST/brown/lib/gcc/m68k-atariextrabrowner-elf/10.2.0/../../../../m68k-atariextrabrowner-elf/lib/m68000/libc.a(mpn-cmp.o)
 .data          0x000000000004f028        0x0 /Users/davidebucci/Desktop/Synchronized/Vintage/Computing/Atari/ST/brown/lib/gcc/m68k-atariextrabrowner-elf/10.2.0/../../../../m68k-atariextrabrowner-elf/lib/m68000/libc.a(mpn-divrem.o)
 .data          0x000000000004f028        0x0 /Users/davidebucci/Desktop/Synchronized/Vintage/Computing/Atari/ST/brown/lib/gcc/m68k-atariextrabrowner-elf/10.2.0/../../../../m68k-atariextrabrowner-elf/lib/m68000/libc.a(mpn-lshift.o)
 .data          0x000000000004f028        0x0 /Users/davidebucci/Desktop/Synchronized/Vintage/Computing/Atari/ST/brown/lib/gcc/m68k-atariextrabrowner-elf/10.2.0/../../../../m68k-atariextrabrowner-elf/lib/m68000/libc.a(mpn-mul.o)
 .data          0x000000000004f028        0x0 /Users/davidebucci/Desktop/Synchronized/Vintage/Computing/Atari/ST/brown/lib/gcc/m68k-atariextrabrowner-elf/10.2.0/../../../../m68k-atariextrabrowner-elf/lib/m68000/libc.a(mpn-mul_1.o)
 .data          0x000000000004f028        0x0 /Users/davidebucci/Desktop/Synchronized/Vintage/Computing/Atari/ST/brown/lib/gcc/m68k-atariextrabrowner-elf/10.2.0/../../../../m68k-atariextrabrowner-elf/lib/m68000/libc.a(mpn-mul_n.o)
 .data          0x000000000004f028        0x0 /Users/davidebucci/Desktop/Synchronized/Vintage/Computing/Atari/ST/brown/lib/gcc/m68k-atariextrabrowner-elf/10.2.0/../../../../m68k-atariextrabrowner-elf/lib/m68000/libc.a(mpn-rshift.o)
 .data          0x000000000004f028        0x0 /Users/davidebucci/Desktop/Synchronized/Vintage/Computing/Atari/ST/brown/lib/gcc/m68k-atariextrabrowner-elf/10.2.0/../../../../m68k-atariextrabrowner-elf/lib/m68000/libc.a(mpn-sub_n.o)
 .data          0x000000000004f028        0x0 /Users/davidebucci/Desktop/Synchronized/Vintage/Computing/Atari/ST/brown/lib/gcc/m68k-atariextrabrowner-elf/10.2.0/../../../../m68k-atariextrabrowner-elf/lib/m68000/libc.a(mpn-submul_1.o)
 .data          0x000000000004f028        0x0 /Users/davidebucci/Desktop/Synchronized/Vintage/Computing/Atari/ST/brown/lib/gcc/m68k-atariextrabrowner-elf/10.2.0/../../../../m68k-atariextrabrowner-elf/lib/m68000/libc.a(s_isinf.o)
 .data          0x000000000004f028        0x0 /Users/davidebucci/Desktop/Synchronized/Vintage/Computing/Atari/ST/brown/lib/gcc/m68k-atariextrabrowner-elf/10.2.0/../../../../m68k-atariextrabrowner-elf/lib/m68000/libc.a(s_isinfl.o)
 .data          0x000000000004f028        0x0 /Users/davidebucci/Desktop/Synchronized/Vintage/Computing/Atari/ST/brown/lib/gcc/m68k-atariextrabrowner-elf/10.2.0/../../../../m68k-atariextrabrowner-elf/lib/m68000/libc.a(s_isnan.o)
 .data          0x000000000004f028        0x0 /Users/davidebucci/Desktop/Synchronized/Vintage/Computing/Atari/ST/brown/lib/gcc/m68k-atariextrabrowner-elf/10.2.0/../../../../m68k-atariextrabrowner-elf/lib/m68000/libc.a(s_isnanl.o)
 .data          0x000000000004f028        0x0 /Users/davidebucci/Desktop/Synchronized/Vintage/Computing/Atari/ST/brown/lib/gcc/m68k-atariextrabrowner-elf/10.2.0/../../../../m68k-atariextrabrowner-elf/lib/m68000/libc.a(s_signbit.o)
 .data          0x000000000004f028        0x0 /Users/davidebucci/Desktop/Synchronized/Vintage/Computing/Atari/ST/brown/lib/gcc/m68k-atariextrabrowner-elf/10.2.0/../../../../m68k-atariextrabrowner-elf/lib/m68000/libc.a(s_signbitl.o)
 .data          0x000000000004f028        0x0 /Users/davidebucci/Desktop/Synchronized/Vintage/Computing/Atari/ST/brown/lib/gcc/m68k-atariextrabrowner-elf/10.2.0/../../../../m68k-atariextrabrowner-elf/lib/m68000/libc.a(snprintf.o)
 .data          0x000000000004f028        0x0 /Users/davidebucci/Desktop/Synchronized/Vintage/Computing/Atari/ST/brown/lib/gcc/m68k-atariextrabrowner-elf/10.2.0/../../../../m68k-atariextrabrowner-elf/lib/m68000/libc.a(vsnprintf.o)
 .data          0x000000000004f028        0x0 /Users/davidebucci/Desktop/Synchronized/Vintage/Computing/Atari/ST/brown/lib/gcc/m68k-atariextrabrowner-elf/10.2.0/../../../../m68k-atariextrabrowner-elf/lib/m68000/libc.a(mpn-add_n.o)
 .data          0x000000000004f028        0x0 /Users/davidebucci/Desktop/Synchronized/Vintage/Computing/Atari/ST/brown/lib/gcc/m68k-atariextrabrowner-elf/10.2.0/../../../../m68k-atariextrabrowner-elf/lib/m68000/libc.a(mpn-addmul_1.o)
 .data          0x000000000004f028        0x0 /Users/davidebucci/Desktop/Synchronized/Vintage/Computing/Atari/ST/brown/lib/gcc/m68k-atariextrabrowner-elf/10.2.0/../../../../m68k-atariextrabrowner-elf/lib/m68000/libc.a(fputs.o)
 .data          0x000000000004f028        0x0 /Users/davidebucci/Desktop/Synchronized/Vintage/Computing/Atari/ST/brown//lib/gcc/m68k-atariextrabrowner-elf/10.2.0/m68000/libgcc.a(_mulsi3.o)
 .data          0x000000000004f028        0x0 /Users/davidebucci/Desktop/Synchronized/Vintage/Computing/Atari/ST/brown//lib/gcc/m68k-atariextrabrowner-elf/10.2.0/m68000/libgcc.a(_udivsi3.o)
 .data          0x000000000004f028        0x0 /Users/davidebucci/Desktop/Synchronized/Vintage/Computing/Atari/ST/brown//lib/gcc/m68k-atariextrabrowner-elf/10.2.0/m68000/libgcc.a(_divsi3.o)
 .data          0x000000000004f028        0x0 /Users/davidebucci/Desktop/Synchronized/Vintage/Computing/Atari/ST/brown//lib/gcc/m68k-atariextrabrowner-elf/10.2.0/m68000/libgcc.a(_umodsi3.o)
 .data          0x000000000004f028        0x0 /Users/davidebucci/Desktop/Synchronized/Vintage/Computing/Atari/ST/brown//lib/gcc/m68k-atariextrabrowner-elf/10.2.0/m68000/libgcc.a(_modsi3.o)
 .data          0x000000000004f028        0x0 /Users/davidebucci/Desktop/Synchronized/Vintage/Computing/Atari/ST/brown//lib/gcc/m68k-atariextrabrowner-elf/10.2.0/m68000/libgcc.a(_double.o)
 .data          0x000000000004f028       0x1c /Users/davidebucci/Desktop/Synchronized/Vintage/Computing/Atari/ST/brown//lib/gcc/m68k-atariextrabrowner-elf/10.2.0/m68000/libgcc.a(_floatex.o)
                0x000000000004f028                __fpCCR
 .data          0x000000000004f044        0x0 /Users/davidebucci/Desktop/Synchronized/Vintage/Computing/Atari/ST/brown//lib/gcc/m68k-atariextrabrowner-elf/10.2.0/m68000/libgcc.a(_ltdf2.o)
 .data          0x000000000004f044        0x0 /Users/davidebucci/Desktop/Synchronized/Vintage/Computing/Atari/ST/brown//lib/gcc/m68k-atariextrabrowner-elf/10.2.0/m68000/libgcc.a(fpgnulib.o)
 .data          0x000000000004f044        0x0 /Users/davidebucci/Desktop/Synchronized/Vintage/Computing/Atari/ST/brown//lib/gcc/m68k-atariextrabrowner-elf/10.2.0/m68000/libgcc.a(xfgnulib.o)
 .data          0x000000000004f044        0x0 /Users/davidebucci/Desktop/Synchronized/Vintage/Computing/Atari/ST/brown/lib/gcc/m68k-atariextrabrowner-elf/10.2.0/m68000/crtend.o

.tm_clone_table
                0x000000000004f044        0x0
 .tm_clone_table
                0x000000000004f044        0x0 /Users/davidebucci/Desktop/Synchronized/Vintage/Computing/Atari/ST/brown/lib/gcc/m68k-atariextrabrowner-elf/10.2.0/m68000/crtbegin.o
 .tm_clone_table
                0x000000000004f044        0x0 /Users/davidebucci/Desktop/Synchronized/Vintage/Computing/Atari/ST/brown/lib/gcc/m68k-atariextrabrowner-elf/10.2.0/m68000/crtend.o
                0x000000000004f044                ___TMC_END__

.data1
 *(.data1)
                0x000000000004f044                _edata = .
                [!provide]                        PROVIDE (edata = .)
                0x000000000004f044                . = .
                0x000000000004f044                __bss_start = .

.bss            0x000000000004f044    0x27794
 *(.dynbss)
 *(.bss .bss.* .gnu.linkonce.b.*)
 .bss           0x000000000004f044       0x1e /Users/davidebucci/Desktop/Synchronized/Vintage/Computing/Atari/ST/brown/lib/gcc/m68k-atariextrabrowner-elf/10.2.0/m68000/crtbegin.o
 *fill*         0x000000000004f062        0x2 
 .bss           0x000000000004f064        0x0 /Users/davidebucci/Desktop/Synchronized/Vintage/Computing/Atari/ST/brown//../bigbrownbuild-git/mintlib-bigbrownbuild-10.2.0/startup/crt0.o
 .bss           0x000000000004f064        0x0 /var/folders/sk/pxzc9l1n12xfhw7mpgdgdkdc0000gn/T//tqf40.elf.kOuEog.ltrans0.ltrans.o
 .bss.colc      0x000000000004f064        0x1 /var/folders/sk/pxzc9l1n12xfhw7mpgdgdkdc0000gn/T//tqf40.elf.kOuEog.ltrans0.ltrans.o
 .bss.wordbuffer
                0x000000000004f065       0x28 /var/folders/sk/pxzc9l1n12xfhw7mpgdgdkdc0000gn/T//tqf40.elf.kOuEog.ltrans0.ltrans.o
 .bss.d         0x000000000004f08d        0x1 /var/folders/sk/pxzc9l1n12xfhw7mpgdgdkdc0000gn/T//tqf40.elf.kOuEog.ltrans0.ltrans.o
 .bss.c         0x000000000004f08e        0x1 /var/folders/sk/pxzc9l1n12xfhw7mpgdgdkdc0000gn/T//tqf40.elf.kOuEog.ltrans0.ltrans.o
 .bss.pc        0x000000000004f08f        0x1 /var/folders/sk/pxzc9l1n12xfhw7mpgdgdkdc0000gn/T//tqf40.elf.kOuEog.ltrans0.ltrans.o
 .bss.rowc      0x000000000004f090        0x1 /var/folders/sk/pxzc9l1n12xfhw7mpgdgdkdc0000gn/T//tqf40.elf.kOuEog.ltrans0.ltrans.o
 .bss.s         0x000000000004f091       0xff /var/folders/sk/pxzc9l1n12xfhw7mpgdgdkdc0000gn/T//tqf40.elf.kOuEog.ltrans0.ltrans.o
 .bss.j         0x000000000004f190        0x1 /var/folders/sk/pxzc9l1n12xfhw7mpgdgdkdc0000gn/T//tqf40.elf.kOuEog.ltrans0.ltrans.o
 .bss.lc        0x000000000004f191        0x1 /var/folders/sk/pxzc9l1n12xfhw7mpgdgdkdc0000gn/T//tqf40.elf.kOuEog.ltrans0.ltrans.o
 .bss.i         0x000000000004f192        0x1 /var/folders/sk/pxzc9l1n12xfhw7mpgdgdkdc0000gn/T//tqf40.elf.kOuEog.ltrans0.ltrans.o
 *fill*         0x000000000004f193        0x1 
 .bss.f         0x000000000004f194        0x4 /var/folders/sk/pxzc9l1n12xfhw7mpgdgdkdc0000gn/T//tqf40.elf.kOuEog.ltrans0.ltrans.o
 .bss.playerInput
                0x000000000004f198       0xff /var/folders/sk/pxzc9l1n12xfhw7mpgdgdkdc0000gn/T//tqf40.elf.kOuEog.ltrans0.ltrans.o
 *fill*         0x000000000004f297        0x1 
 .bss.noun2     0x000000000004f298        0x4 /var/folders/sk/pxzc9l1n12xfhw7mpgdgdkdc0000gn/T//tqf40.elf.kOuEog.ltrans0.ltrans.o
 .bss.actor     0x000000000004f29c        0x1 /var/folders/sk/pxzc9l1n12xfhw7mpgdgdkdc0000gn/T//tqf40.elf.kOuEog.ltrans0.ltrans.o
 *fill*         0x000000000004f29d        0x1 
 .bss.dummy     0x000000000004f29e        0x4 /var/folders/sk/pxzc9l1n12xfhw7mpgdgdkdc0000gn/T//tqf40.elf.kOuEog.ltrans0.ltrans.o
 .bss.adve      0x000000000004f2a2        0x4 /var/folders/sk/pxzc9l1n12xfhw7mpgdgdkdc0000gn/T//tqf40.elf.kOuEog.ltrans0.ltrans.o
 .bss.noun1     0x000000000004f2a6        0x4 /var/folders/sk/pxzc9l1n12xfhw7mpgdgdkdc0000gn/T//tqf40.elf.kOuEog.ltrans0.ltrans.o
 .bss.verb      0x000000000004f2aa        0x4 /var/folders/sk/pxzc9l1n12xfhw7mpgdgdkdc0000gn/T//tqf40.elf.kOuEog.ltrans0.ltrans.o
 .bss.ls        0x000000000004f2ae        0x1 /var/folders/sk/pxzc9l1n12xfhw7mpgdgdkdc0000gn/T//tqf40.elf.kOuEog.ltrans0.ltrans.o
 *fill*         0x000000000004f2af        0x1 
 .bss.cr        0x000000000004f2b0        0x4 /var/folders/sk/pxzc9l1n12xfhw7mpgdgdkdc0000gn/T//tqf40.elf.kOuEog.ltrans0.ltrans.o
 .bss.retv      0x000000000004f2b4        0x1 /var/folders/sk/pxzc9l1n12xfhw7mpgdgdkdc0000gn/T//tqf40.elf.kOuEog.ltrans0.ltrans.o
 .bss.current_position
                0x000000000004f2b5        0x1 /var/folders/sk/pxzc9l1n12xfhw7mpgdgdkdc0000gn/T//tqf40.elf.kOuEog.ltrans0.ltrans.o
 .bss.iii       0x000000000004f2b6        0x1 /var/folders/sk/pxzc9l1n12xfhw7mpgdgdkdc0000gn/T//tqf40.elf.kOuEog.ltrans0.ltrans.o
 .bss.currbyte  0x000000000004f2b7        0x1 /var/folders/sk/pxzc9l1n12xfhw7mpgdgdkdc0000gn/T//tqf40.elf.kOuEog.ltrans0.ltrans.o
 .bss.decompress_b
                0x000000000004f2b8       0xf1 /var/folders/sk/pxzc9l1n12xfhw7mpgdgdkdc0000gn/T//tqf40.elf.kOuEog.ltrans0.ltrans.o
 *fill*         0x000000000004f3a9        0x1 
 .bss.compressed
                0x000000000004f3aa        0x4 /var/folders/sk/pxzc9l1n12xfhw7mpgdgdkdc0000gn/T//tqf40.elf.kOuEog.ltrans0.ltrans.o
 .bss.bpointer  0x000000000004f3ae        0x1 /var/folders/sk/pxzc9l1n12xfhw7mpgdgdkdc0000gn/T//tqf40.elf.kOuEog.ltrans0.ltrans.o
 *fill*         0x000000000004f3af        0x1 
 .bss.cpointer  0x000000000004f3b0        0x4 /var/folders/sk/pxzc9l1n12xfhw7mpgdgdkdc0000gn/T//tqf40.elf.kOuEog.ltrans0.ltrans.o
 .bss.next_position
                0x000000000004f3b4        0x1 /var/folders/sk/pxzc9l1n12xfhw7mpgdgdkdc0000gn/T//tqf40.elf.kOuEog.ltrans0.ltrans.o
 *fill*         0x000000000004f3b5        0x1 
 .bss.counter   0x000000000004f3b6      0x204 /var/folders/sk/pxzc9l1n12xfhw7mpgdgdkdc0000gn/T//tqf40.elf.kOuEog.ltrans0.ltrans.o
 .bss.marker    0x000000000004f5ba       0x81 /var/folders/sk/pxzc9l1n12xfhw7mpgdgdkdc0000gn/T//tqf40.elf.kOuEog.ltrans0.ltrans.o
 .bss.cdummy    0x000000000004f63b        0x1 /var/folders/sk/pxzc9l1n12xfhw7mpgdgdkdc0000gn/T//tqf40.elf.kOuEog.ltrans0.ltrans.o
 .bss           0x000000000004f63c    0x25d36 cover_pics/queen.o
 *fill*         0x0000000000075372        0x2 
 .bss           0x0000000000075374        0x0 /Users/davidebucci/Desktop/Synchronized/Vintage/Computing/Atari/ST/brown/lib/gcc/m68k-atariextrabrowner-elf/10.2.0/../../../../m68k-atariextrabrowner-elf/lib/m68000/libc.a(checkcpu.o)
 .bss           0x0000000000075374        0x0 /Users/davidebucci/Desktop/Synchronized/Vintage/Computing/Atari/ST/brown/lib/gcc/m68k-atariextrabrowner-elf/10.2.0/../../../../m68k-atariextrabrowner-elf/lib/m68000/libc.a(crtinit.o)
 .bss           0x0000000000075374        0x0 /Users/davidebucci/Desktop/Synchronized/Vintage/Computing/Atari/ST/brown/lib/gcc/m68k-atariextrabrowner-elf/10.2.0/../../../../m68k-atariextrabrowner-elf/lib/m68000/libc.a(getenv.o)
 .bss           0x0000000000075374       0x3c /Users/davidebucci/Desktop/Synchronized/Vintage/Computing/Atari/ST/brown/lib/gcc/m68k-atariextrabrowner-elf/10.2.0/../../../../m68k-atariextrabrowner-elf/lib/m68000/libc.a(globals.o)
                0x0000000000075374                __exit_dummy_decl
                0x0000000000075378                __split_mem
                0x000000000007537a                ___DEFAULT_BUFSIZ__
                0x000000000007537e                __PgmSize
                0x0000000000075382                _environ
                0x0000000000075386                __base
                0x000000000007538a                ___has_no_ssystem
                0x000000000007538e                ___libc_unix_names
                0x0000000000075392                __num_at_exit
                0x0000000000075396                __at_exit
                0x000000000007539a                __childtime
                0x000000000007539e                __starttime
                0x00000000000753a2                __rootdir
                0x00000000000753a4                __pdomain
                0x00000000000753a8                ___mint
                0x00000000000753ac                _errno
 .bss           0x00000000000753b0        0x4 /Users/davidebucci/Desktop/Synchronized/Vintage/Computing/Atari/ST/brown/lib/gcc/m68k-atariextrabrowner-elf/10.2.0/../../../../m68k-atariextrabrowner-elf/lib/m68000/libc.a(heapbase.o)
                0x00000000000753b0                __heapbase
 .bss           0x00000000000753b4        0x0 /Users/davidebucci/Desktop/Synchronized/Vintage/Computing/Atari/ST/brown/lib/gcc/m68k-atariextrabrowner-elf/10.2.0/../../../../m68k-atariextrabrowner-elf/lib/m68000/libc.a(ident.o)
 .bss           0x00000000000753b4        0x1 /Users/davidebucci/Desktop/Synchronized/Vintage/Computing/Atari/ST/brown/lib/gcc/m68k-atariextrabrowner-elf/10.2.0/../../../../m68k-atariextrabrowner-elf/lib/m68000/libc.a(ident_dummy_gem.o)
                0x00000000000753b4                ___Ident_gem
 *fill*         0x00000000000753b5        0x3 
 .bss           0x00000000000753b8        0x4 /Users/davidebucci/Desktop/Synchronized/Vintage/Computing/Atari/ST/brown/lib/gcc/m68k-atariextrabrowner-elf/10.2.0/../../../../m68k-atariextrabrowner-elf/lib/m68000/libc.a(inistack.o)
                0x00000000000753b8                __initial_stack
 .bss           0x00000000000753bc        0x0 /Users/davidebucci/Desktop/Synchronized/Vintage/Computing/Atari/ST/brown/lib/gcc/m68k-atariextrabrowner-elf/10.2.0/../../../../m68k-atariextrabrowner-elf/lib/m68000/libc.a(main.o)
 .bss           0x00000000000753bc        0x8 /Users/davidebucci/Desktop/Synchronized/Vintage/Computing/Atari/ST/brown/lib/gcc/m68k-atariextrabrowner-elf/10.2.0/../../../../m68k-atariextrabrowner-elf/lib/m68000/libc.a(malloc.o)
 .bss           0x00000000000753c4        0x0 /Users/davidebucci/Desktop/Synchronized/Vintage/Computing/Atari/ST/brown/lib/gcc/m68k-atariextrabrowner-elf/10.2.0/../../../../m68k-atariextrabrowner-elf/lib/m68000/libc.a(realloc.o)
 .bss           0x00000000000753c4        0x0 /Users/davidebucci/Desktop/Synchronized/Vintage/Computing/Atari/ST/brown/lib/gcc/m68k-atariextrabrowner-elf/10.2.0/../../../../m68k-atariextrabrowner-elf/lib/m68000/libc.a(setstack.o)
 .bss           0x00000000000753c4        0x0 /Users/davidebucci/Desktop/Synchronized/Vintage/Computing/Atari/ST/brown/lib/gcc/m68k-atariextrabrowner-elf/10.2.0/../../../../m68k-atariextrabrowner-elf/lib/m68000/libc.a(stksiz.o)
 .bss           0x00000000000753c4        0x0 /Users/davidebucci/Desktop/Synchronized/Vintage/Computing/Atari/ST/brown/lib/gcc/m68k-atariextrabrowner-elf/10.2.0/../../../../m68k-atariextrabrowner-elf/lib/m68000/libc.a(unx2dos.o)
 .bss           0x00000000000753c4       0x88 /Users/davidebucci/Desktop/Synchronized/Vintage/Computing/Atari/ST/brown/lib/gcc/m68k-atariextrabrowner-elf/10.2.0/../../../../m68k-atariextrabrowner-elf/lib/m68000/libc.a(initsig.o)
                0x00000000000753c4                __sigpending
                0x00000000000753c8                __sigmask
                0x00000000000753cc                __sig_handler
 .bss           0x000000000007544c        0x0 /Users/davidebucci/Desktop/Synchronized/Vintage/Computing/Atari/ST/brown/lib/gcc/m68k-atariextrabrowner-elf/10.2.0/../../../../m68k-atariextrabrowner-elf/lib/m68000/libc.a(binmode.o)
 .bss           0x000000000007544c        0x2 /Users/davidebucci/Desktop/Synchronized/Vintage/Computing/Atari/ST/brown/lib/gcc/m68k-atariextrabrowner-elf/10.2.0/../../../../m68k-atariextrabrowner-elf/lib/m68000/libc.a(defmode.o)
                0x000000000007544c                ___default_mode__
 *fill*         0x000000000007544e        0x2 
 .bss           0x0000000000075450        0x0 /Users/davidebucci/Desktop/Synchronized/Vintage/Computing/Atari/ST/brown/lib/gcc/m68k-atariextrabrowner-elf/10.2.0/../../../../m68k-atariextrabrowner-elf/lib/m68000/libc.a(fclose.o)
 .bss           0x0000000000075450        0x0 /Users/davidebucci/Desktop/Synchronized/Vintage/Computing/Atari/ST/brown/lib/gcc/m68k-atariextrabrowner-elf/10.2.0/../../../../m68k-atariextrabrowner-elf/lib/m68000/libc.a(fgets.o)
 .bss           0x0000000000075450        0x0 /Users/davidebucci/Desktop/Synchronized/Vintage/Computing/Atari/ST/brown/lib/gcc/m68k-atariextrabrowner-elf/10.2.0/../../../../m68k-atariextrabrowner-elf/lib/m68000/libc.a(fileno.o)
 .bss           0x0000000000075450        0x0 /Users/davidebucci/Desktop/Synchronized/Vintage/Computing/Atari/ST/brown/lib/gcc/m68k-atariextrabrowner-elf/10.2.0/../../../../m68k-atariextrabrowner-elf/lib/m68000/libc.a(fopen.o)
 .bss           0x0000000000075450        0x0 /Users/davidebucci/Desktop/Synchronized/Vintage/Computing/Atari/ST/brown/lib/gcc/m68k-atariextrabrowner-elf/10.2.0/../../../../m68k-atariextrabrowner-elf/lib/m68000/libc.a(getchar.o)
 .bss           0x0000000000075450        0x0 /Users/davidebucci/Desktop/Synchronized/Vintage/Computing/Atari/ST/brown/lib/gcc/m68k-atariextrabrowner-elf/10.2.0/../../../../m68k-atariextrabrowner-elf/lib/m68000/libc.a(internals.o)
 .bss           0x0000000000075450        0x0 /Users/davidebucci/Desktop/Synchronized/Vintage/Computing/Atari/ST/brown/lib/gcc/m68k-atariextrabrowner-elf/10.2.0/../../../../m68k-atariextrabrowner-elf/lib/m68000/libc.a(newstream.o)
 .bss           0x0000000000075450        0x0 /Users/davidebucci/Desktop/Synchronized/Vintage/Computing/Atari/ST/brown/lib/gcc/m68k-atariextrabrowner-elf/10.2.0/../../../../m68k-atariextrabrowner-elf/lib/m68000/libc.a(setvbuf.o)
 .bss           0x0000000000075450        0x0 /Users/davidebucci/Desktop/Synchronized/Vintage/Computing/Atari/ST/brown/lib/gcc/m68k-atariextrabrowner-elf/10.2.0/../../../../m68k-atariextrabrowner-elf/lib/m68000/libc.a(stdio_init.o)
 .bss           0x0000000000075450        0x0 /Users/davidebucci/Desktop/Synchronized/Vintage/Computing/Atari/ST/brown/lib/gcc/m68k-atariextrabrowner-elf/10.2.0/../../../../m68k-atariextrabrowner-elf/lib/m68000/libc.a(sysd-stdio.o)
 .bss           0x0000000000075450        0x0 /Users/davidebucci/Desktop/Synchronized/Vintage/Computing/Atari/ST/brown/lib/gcc/m68k-atariextrabrowner-elf/10.2.0/../../../../m68k-atariextrabrowner-elf/lib/m68000/libc.a(atoi.o)
 .bss           0x0000000000075450        0x0 /Users/davidebucci/Desktop/Synchronized/Vintage/Computing/Atari/ST/brown/lib/gcc/m68k-atariextrabrowner-elf/10.2.0/../../../../m68k-atariextrabrowner-elf/lib/m68000/libc.a(exit.o)
 .bss           0x0000000000075450        0x0 /Users/davidebucci/Desktop/Synchronized/Vintage/Computing/Atari/ST/brown/lib/gcc/m68k-atariextrabrowner-elf/10.2.0/../../../../m68k-atariextrabrowner-elf/lib/m68000/libc.a(strtol.o)
 .bss           0x0000000000075450        0x0 /Users/davidebucci/Desktop/Synchronized/Vintage/Computing/Atari/ST/brown/lib/gcc/m68k-atariextrabrowner-elf/10.2.0/../../../../m68k-atariextrabrowner-elf/lib/m68000/libc.a(bcopy.o)
 .bss           0x0000000000075450        0x0 /Users/davidebucci/Desktop/Synchronized/Vintage/Computing/Atari/ST/brown/lib/gcc/m68k-atariextrabrowner-elf/10.2.0/../../../../m68k-atariextrabrowner-elf/lib/m68000/libc.a(bzero.o)
 .bss           0x0000000000075450        0x0 /Users/davidebucci/Desktop/Synchronized/Vintage/Computing/Atari/ST/brown/lib/gcc/m68k-atariextrabrowner-elf/10.2.0/../../../../m68k-atariextrabrowner-elf/lib/m68000/libc.a(memccpy.o)
 .bss           0x0000000000075450        0x0 /Users/davidebucci/Desktop/Synchronized/Vintage/Computing/Atari/ST/brown/lib/gcc/m68k-atariextrabrowner-elf/10.2.0/../../../../m68k-atariextrabrowner-elf/lib/m68000/libc.a(memset.o)
 .bss           0x0000000000075450        0x0 /Users/davidebucci/Desktop/Synchronized/Vintage/Computing/Atari/ST/brown/lib/gcc/m68k-atariextrabrowner-elf/10.2.0/../../../../m68k-atariextrabrowner-elf/lib/m68000/libc.a(strcmp.o)
 .bss           0x0000000000075450        0x0 /Users/davidebucci/Desktop/Synchronized/Vintage/Computing/Atari/ST/brown/lib/gcc/m68k-atariextrabrowner-elf/10.2.0/../../../../m68k-atariextrabrowner-elf/lib/m68000/libc.a(strlen.o)
 .bss           0x0000000000075450        0x0 /Users/davidebucci/Desktop/Synchronized/Vintage/Computing/Atari/ST/brown/lib/gcc/m68k-atariextrabrowner-elf/10.2.0/../../../../m68k-atariextrabrowner-elf/lib/m68000/libc.a(strncat.o)
 .bss           0x0000000000075450        0x0 /Users/davidebucci/Desktop/Synchronized/Vintage/Computing/Atari/ST/brown/lib/gcc/m68k-atariextrabrowner-elf/10.2.0/../../../../m68k-atariextrabrowner-elf/lib/m68000/libc.a(strncmp.o)
 .bss           0x0000000000075450        0x0 /Users/davidebucci/Desktop/Synchronized/Vintage/Computing/Atari/ST/brown/lib/gcc/m68k-atariextrabrowner-elf/10.2.0/../../../../m68k-atariextrabrowner-elf/lib/m68000/libc.a(strncpy.o)
 .bss           0x0000000000075450        0x0 /Users/davidebucci/Desktop/Synchronized/Vintage/Computing/Atari/ST/brown/lib/gcc/m68k-atariextrabrowner-elf/10.2.0/../../../../m68k-atariextrabrowner-elf/lib/m68000/libc.a(strrchr.o)
 .bss           0x0000000000075450        0x0 /Users/davidebucci/Desktop/Synchronized/Vintage/Computing/Atari/ST/brown/lib/gcc/m68k-atariextrabrowner-elf/10.2.0/../../../../m68k-atariextrabrowner-elf/lib/m68000/libc.a(close.o)
 .bss           0x0000000000075450        0x0 /Users/davidebucci/Desktop/Synchronized/Vintage/Computing/Atari/ST/brown/lib/gcc/m68k-atariextrabrowner-elf/10.2.0/../../../../m68k-atariextrabrowner-elf/lib/m68000/libc.a(dup2.o)
 .bss           0x0000000000075450        0x0 /Users/davidebucci/Desktop/Synchronized/Vintage/Computing/Atari/ST/brown/lib/gcc/m68k-atariextrabrowner-elf/10.2.0/../../../../m68k-atariextrabrowner-elf/lib/m68000/libc.a(fstat.o)
 .bss           0x0000000000075450        0x0 /Users/davidebucci/Desktop/Synchronized/Vintage/Computing/Atari/ST/brown/lib/gcc/m68k-atariextrabrowner-elf/10.2.0/../../../../m68k-atariextrabrowner-elf/lib/m68000/libc.a(getpagesize.o)
 .bss           0x0000000000075450        0x0 /Users/davidebucci/Desktop/Synchronized/Vintage/Computing/Atari/ST/brown/lib/gcc/m68k-atariextrabrowner-elf/10.2.0/../../../../m68k-atariextrabrowner-elf/lib/m68000/libc.a(lseek.o)
 .bss           0x0000000000075450        0x0 /Users/davidebucci/Desktop/Synchronized/Vintage/Computing/Atari/ST/brown/lib/gcc/m68k-atariextrabrowner-elf/10.2.0/../../../../m68k-atariextrabrowner-elf/lib/m68000/libc.a(open.o)
 .bss           0x0000000000075450        0x0 /Users/davidebucci/Desktop/Synchronized/Vintage/Computing/Atari/ST/brown/lib/gcc/m68k-atariextrabrowner-elf/10.2.0/../../../../m68k-atariextrabrowner-elf/lib/m68000/libc.a(read.o)
 .bss           0x0000000000075450        0x0 /Users/davidebucci/Desktop/Synchronized/Vintage/Computing/Atari/ST/brown/lib/gcc/m68k-atariextrabrowner-elf/10.2.0/../../../../m68k-atariextrabrowner-elf/lib/m68000/libc.a(sbrk.o)
 .bss           0x0000000000075450        0x0 /Users/davidebucci/Desktop/Synchronized/Vintage/Computing/Atari/ST/brown/lib/gcc/m68k-atariextrabrowner-elf/10.2.0/../../../../m68k-atariextrabrowner-elf/lib/m68000/libc.a(sysctl.o)
 .bss           0x0000000000075450        0x0 /Users/davidebucci/Desktop/Synchronized/Vintage/Computing/Atari/ST/brown/lib/gcc/m68k-atariextrabrowner-elf/10.2.0/../../../../m68k-atariextrabrowner-elf/lib/m68000/libc.a(write.o)
 .bss           0x0000000000075450        0x0 /Users/davidebucci/Desktop/Synchronized/Vintage/Computing/Atari/ST/brown/lib/gcc/m68k-atariextrabrowner-elf/10.2.0/../../../../m68k-atariextrabrowner-elf/lib/m68000/libc.a(ident_sock.o)
 .bss           0x0000000000075450        0x0 /Users/davidebucci/Desktop/Synchronized/Vintage/Computing/Atari/ST/brown/lib/gcc/m68k-atariextrabrowner-elf/10.2.0/../../../../m68k-atariextrabrowner-elf/lib/m68000/libc.a(assert.o)
 .bss           0x0000000000075450        0x0 /Users/davidebucci/Desktop/Synchronized/Vintage/Computing/Atari/ST/brown/lib/gcc/m68k-atariextrabrowner-elf/10.2.0/../../../../m68k-atariextrabrowner-elf/lib/m68000/libc.a(console.o)
 .bss           0x0000000000075450        0x0 /Users/davidebucci/Desktop/Synchronized/Vintage/Computing/Atari/ST/brown/lib/gcc/m68k-atariextrabrowner-elf/10.2.0/../../../../m68k-atariextrabrowner-elf/lib/m68000/libc.a(ctype.o)
 .bss           0x0000000000075450        0x0 /Users/davidebucci/Desktop/Synchronized/Vintage/Computing/Atari/ST/brown/lib/gcc/m68k-atariextrabrowner-elf/10.2.0/../../../../m68k-atariextrabrowner-elf/lib/m68000/libc.a(do_fstat.o)
 .bss           0x0000000000075450        0x0 /Users/davidebucci/Desktop/Synchronized/Vintage/Computing/Atari/ST/brown/lib/gcc/m68k-atariextrabrowner-elf/10.2.0/../../../../m68k-atariextrabrowner-elf/lib/m68000/libc.a(enoent.o)
 .bss           0x0000000000075450        0x0 /Users/davidebucci/Desktop/Synchronized/Vintage/Computing/Atari/ST/brown/lib/gcc/m68k-atariextrabrowner-elf/10.2.0/../../../../m68k-atariextrabrowner-elf/lib/m68000/libc.a(getcookie.o)
 .bss           0x0000000000075450        0x0 /Users/davidebucci/Desktop/Synchronized/Vintage/Computing/Atari/ST/brown/lib/gcc/m68k-atariextrabrowner-elf/10.2.0/../../../../m68k-atariextrabrowner-elf/lib/m68000/libc.a(getsysvar.o)
 .bss           0x0000000000075450        0x0 /Users/davidebucci/Desktop/Synchronized/Vintage/Computing/Atari/ST/brown/lib/gcc/m68k-atariextrabrowner-elf/10.2.0/../../../../m68k-atariextrabrowner-elf/lib/m68000/libc.a(inode.o)
 .bss           0x0000000000075450       0xf0 /Users/davidebucci/Desktop/Synchronized/Vintage/Computing/Atari/ST/brown/lib/gcc/m68k-atariextrabrowner-elf/10.2.0/../../../../m68k-atariextrabrowner-elf/lib/m68000/libc.a(isatty.o)
                0x0000000000075450                ___open_stat
 .bss           0x0000000000075540        0x0 /Users/davidebucci/Desktop/Synchronized/Vintage/Computing/Atari/ST/brown/lib/gcc/m68k-atariextrabrowner-elf/10.2.0/../../../../m68k-atariextrabrowner-elf/lib/m68000/libc.a(isctty.o)
 .bss           0x0000000000075540        0x0 /Users/davidebucci/Desktop/Synchronized/Vintage/Computing/Atari/ST/brown/lib/gcc/m68k-atariextrabrowner-elf/10.2.0/../../../../m68k-atariextrabrowner-elf/lib/m68000/libc.a(libc_exit.o)
 .bss           0x0000000000075540        0x0 /Users/davidebucci/Desktop/Synchronized/Vintage/Computing/Atari/ST/brown/lib/gcc/m68k-atariextrabrowner-elf/10.2.0/../../../../m68k-atariextrabrowner-elf/lib/m68000/libc.a(quickstat.o)
 .bss           0x0000000000075540        0x0 /Users/davidebucci/Desktop/Synchronized/Vintage/Computing/Atari/ST/brown/lib/gcc/m68k-atariextrabrowner-elf/10.2.0/../../../../m68k-atariextrabrowner-elf/lib/m68000/libc.a(toxxx.o)
 .bss           0x0000000000075540        0x0 /Users/davidebucci/Desktop/Synchronized/Vintage/Computing/Atari/ST/brown/lib/gcc/m68k-atariextrabrowner-elf/10.2.0/../../../../m68k-atariextrabrowner-elf/lib/m68000/libc.a(unixtime.o)
 .bss           0x0000000000075540        0x0 /Users/davidebucci/Desktop/Synchronized/Vintage/Computing/Atari/ST/brown/lib/gcc/m68k-atariextrabrowner-elf/10.2.0/../../../../m68k-atariextrabrowner-elf/lib/m68000/libc.a(raise.o)
 .bss           0x0000000000075540        0x0 /Users/davidebucci/Desktop/Synchronized/Vintage/Computing/Atari/ST/brown/lib/gcc/m68k-atariextrabrowner-elf/10.2.0/../../../../m68k-atariextrabrowner-elf/lib/m68000/libc.a(fcloseall.o)
 .bss           0x0000000000075540        0x0 /Users/davidebucci/Desktop/Synchronized/Vintage/Computing/Atari/ST/brown/lib/gcc/m68k-atariextrabrowner-elf/10.2.0/../../../../m68k-atariextrabrowner-elf/lib/m68000/libc.a(fflush.o)
 .bss           0x0000000000075540        0x0 /Users/davidebucci/Desktop/Synchronized/Vintage/Computing/Atari/ST/brown/lib/gcc/m68k-atariextrabrowner-elf/10.2.0/../../../../m68k-atariextrabrowner-elf/lib/m68000/libc.a(itoa-digits.o)
 .bss           0x0000000000075540        0x0 /Users/davidebucci/Desktop/Synchronized/Vintage/Computing/Atari/ST/brown/lib/gcc/m68k-atariextrabrowner-elf/10.2.0/../../../../m68k-atariextrabrowner-elf/lib/m68000/libc.a(strtoul.o)
 .bss           0x0000000000075540        0x0 /Users/davidebucci/Desktop/Synchronized/Vintage/Computing/Atari/ST/brown/lib/gcc/m68k-atariextrabrowner-elf/10.2.0/../../../../m68k-atariextrabrowner-elf/lib/m68000/libc.a(strchr.o)
 .bss           0x0000000000075540      0x144 /Users/davidebucci/Desktop/Synchronized/Vintage/Computing/Atari/ST/brown/lib/gcc/m68k-atariextrabrowner-elf/10.2.0/../../../../m68k-atariextrabrowner-elf/lib/m68000/libc.a(localtime.o)
                0x0000000000075540                _daylight
                0x0000000000075544                _timezone
 .bss           0x0000000000075684        0x0 /Users/davidebucci/Desktop/Synchronized/Vintage/Computing/Atari/ST/brown/lib/gcc/m68k-atariextrabrowner-elf/10.2.0/../../../../m68k-atariextrabrowner-elf/lib/m68000/libc.a(access.o)
 .bss           0x0000000000075684        0x0 /Users/davidebucci/Desktop/Synchronized/Vintage/Computing/Atari/ST/brown/lib/gcc/m68k-atariextrabrowner-elf/10.2.0/../../../../m68k-atariextrabrowner-elf/lib/m68000/libc.a(chmod.o)
 .bss           0x0000000000075684        0x0 /Users/davidebucci/Desktop/Synchronized/Vintage/Computing/Atari/ST/brown/lib/gcc/m68k-atariextrabrowner-elf/10.2.0/../../../../m68k-atariextrabrowner-elf/lib/m68000/libc.a(getegid.o)
 .bss           0x0000000000075684        0x0 /Users/davidebucci/Desktop/Synchronized/Vintage/Computing/Atari/ST/brown/lib/gcc/m68k-atariextrabrowner-elf/10.2.0/../../../../m68k-atariextrabrowner-elf/lib/m68000/libc.a(geteuid.o)
 .bss           0x0000000000075684        0x0 /Users/davidebucci/Desktop/Synchronized/Vintage/Computing/Atari/ST/brown/lib/gcc/m68k-atariextrabrowner-elf/10.2.0/../../../../m68k-atariextrabrowner-elf/lib/m68000/libc.a(getgid.o)
 .bss           0x0000000000075684        0x0 /Users/davidebucci/Desktop/Synchronized/Vintage/Computing/Atari/ST/brown/lib/gcc/m68k-atariextrabrowner-elf/10.2.0/../../../../m68k-atariextrabrowner-elf/lib/m68000/libc.a(getgroups.o)
 .bss           0x0000000000075684        0x0 /Users/davidebucci/Desktop/Synchronized/Vintage/Computing/Atari/ST/brown/lib/gcc/m68k-atariextrabrowner-elf/10.2.0/../../../../m68k-atariextrabrowner-elf/lib/m68000/libc.a(getpid.o)
 .bss           0x0000000000075684        0x0 /Users/davidebucci/Desktop/Synchronized/Vintage/Computing/Atari/ST/brown/lib/gcc/m68k-atariextrabrowner-elf/10.2.0/../../../../m68k-atariextrabrowner-elf/lib/m68000/libc.a(getuid.o)
 .bss           0x0000000000075684        0x0 /Users/davidebucci/Desktop/Synchronized/Vintage/Computing/Atari/ST/brown/lib/gcc/m68k-atariextrabrowner-elf/10.2.0/../../../../m68k-atariextrabrowner-elf/lib/m68000/libc.a(ioctl.o)
 .bss           0x0000000000075684        0x0 /Users/davidebucci/Desktop/Synchronized/Vintage/Computing/Atari/ST/brown/lib/gcc/m68k-atariextrabrowner-elf/10.2.0/../../../../m68k-atariextrabrowner-elf/lib/m68000/libc.a(kill.o)
 .bss           0x0000000000075684        0x0 /Users/davidebucci/Desktop/Synchronized/Vintage/Computing/Atari/ST/brown/lib/gcc/m68k-atariextrabrowner-elf/10.2.0/../../../../m68k-atariextrabrowner-elf/lib/m68000/libc.a(time.o)
 .bss           0x0000000000075684        0x0 /Users/davidebucci/Desktop/Synchronized/Vintage/Computing/Atari/ST/brown/lib/gcc/m68k-atariextrabrowner-elf/10.2.0/../../../../m68k-atariextrabrowner-elf/lib/m68000/libc.a(abort.o)
 .bss           0x0000000000075684        0xc /Users/davidebucci/Desktop/Synchronized/Vintage/Computing/Atari/ST/brown/lib/gcc/m68k-atariextrabrowner-elf/10.2.0/../../../../m68k-atariextrabrowner-elf/lib/m68000/libc.a(alglobal.o)
                0x0000000000075684                ___funcs
                0x0000000000075688                ___fonts
                0x000000000007568c                ___aline
 .bss           0x0000000000075690        0x0 /Users/davidebucci/Desktop/Synchronized/Vintage/Computing/Atari/ST/brown/lib/gcc/m68k-atariextrabrowner-elf/10.2.0/../../../../m68k-atariextrabrowner-elf/lib/m68000/libc.a(calloc.o)
 .bss           0x0000000000075690        0x4 /Users/davidebucci/Desktop/Synchronized/Vintage/Computing/Atari/ST/brown/lib/gcc/m68k-atariextrabrowner-elf/10.2.0/../../../../m68k-atariextrabrowner-elf/lib/m68000/libc.a(do_stat.o)
                0x0000000000075690                __x_Bit_set_in_stat
 .bss           0x0000000000075694        0x8 /Users/davidebucci/Desktop/Synchronized/Vintage/Computing/Atari/ST/brown/lib/gcc/m68k-atariextrabrowner-elf/10.2.0/../../../../m68k-atariextrabrowner-elf/lib/m68000/libc.a(uidgid.o)
                0x0000000000075694                ___gid
                0x0000000000075698                ___uid
 .bss           0x000000000007569c      0x424 /Users/davidebucci/Desktop/Synchronized/Vintage/Computing/Atari/ST/brown/lib/gcc/m68k-atariextrabrowner-elf/10.2.0/../../../../m68k-atariextrabrowner-elf/lib/m68000/libc.a(getpwuid.o)
 .bss           0x0000000000075ac0        0x0 /Users/davidebucci/Desktop/Synchronized/Vintage/Computing/Atari/ST/brown/lib/gcc/m68k-atariextrabrowner-elf/10.2.0/../../../../m68k-atariextrabrowner-elf/lib/m68000/libc.a(getpwuid_r.o)
 .bss           0x0000000000075ac0      0x414 /Users/davidebucci/Desktop/Synchronized/Vintage/Computing/Atari/ST/brown/lib/gcc/m68k-atariextrabrowner-elf/10.2.0/../../../../m68k-atariextrabrowner-elf/lib/m68000/libc.a(grp.o)
 .bss           0x0000000000075ed4        0x0 /Users/davidebucci/Desktop/Synchronized/Vintage/Computing/Atari/ST/brown/lib/gcc/m68k-atariextrabrowner-elf/10.2.0/../../../../m68k-atariextrabrowner-elf/lib/m68000/libc.a(rewind.o)
 .bss           0x0000000000075ed4       0x48 /Users/davidebucci/Desktop/Synchronized/Vintage/Computing/Atari/ST/brown/lib/gcc/m68k-atariextrabrowner-elf/10.2.0/../../../../m68k-atariextrabrowner-elf/lib/m68000/libc.a(asctime.o)
 .bss           0x0000000000075f1c       0xb4 /Users/davidebucci/Desktop/Synchronized/Vintage/Computing/Atari/ST/brown/lib/gcc/m68k-atariextrabrowner-elf/10.2.0/../../../../m68k-atariextrabrowner-elf/lib/m68000/libc.a(strftime.o)
 .bss           0x0000000000075fd0        0x0 /Users/davidebucci/Desktop/Synchronized/Vintage/Computing/Atari/ST/brown/lib/gcc/m68k-atariextrabrowner-elf/10.2.0/../../../../m68k-atariextrabrowner-elf/lib/m68000/libc.a(gettimeofday.o)
 .bss           0x0000000000075fd0        0x0 /Users/davidebucci/Desktop/Synchronized/Vintage/Computing/Atari/ST/brown/lib/gcc/m68k-atariextrabrowner-elf/10.2.0/../../../../m68k-atariextrabrowner-elf/lib/m68000/libc.a(setlocale.o)
 .bss           0x0000000000075fd0        0x0 /Users/davidebucci/Desktop/Synchronized/Vintage/Computing/Atari/ST/brown/lib/gcc/m68k-atariextrabrowner-elf/10.2.0/../../../../m68k-atariextrabrowner-elf/lib/m68000/libc.a(fgetpwent_r.o)
 .bss           0x0000000000075fd0        0x0 /Users/davidebucci/Desktop/Synchronized/Vintage/Computing/Atari/ST/brown/lib/gcc/m68k-atariextrabrowner-elf/10.2.0/../../../../m68k-atariextrabrowner-elf/lib/m68000/libc.a(clearerr.o)
 .bss           0x0000000000075fd0        0x0 /Users/davidebucci/Desktop/Synchronized/Vintage/Computing/Atari/ST/brown/lib/gcc/m68k-atariextrabrowner-elf/10.2.0/../../../../m68k-atariextrabrowner-elf/lib/m68000/libc.a(fprintf.o)
 .bss           0x0000000000075fd0        0x0 /Users/davidebucci/Desktop/Synchronized/Vintage/Computing/Atari/ST/brown/lib/gcc/m68k-atariextrabrowner-elf/10.2.0/../../../../m68k-atariextrabrowner-elf/lib/m68000/libc.a(fputc.o)
 .bss           0x0000000000075fd0        0x0 /Users/davidebucci/Desktop/Synchronized/Vintage/Computing/Atari/ST/brown/lib/gcc/m68k-atariextrabrowner-elf/10.2.0/../../../../m68k-atariextrabrowner-elf/lib/m68000/libc.a(fseek.o)
 .bss           0x0000000000075fd0        0x0 /Users/davidebucci/Desktop/Synchronized/Vintage/Computing/Atari/ST/brown/lib/gcc/m68k-atariextrabrowner-elf/10.2.0/../../../../m68k-atariextrabrowner-elf/lib/m68000/libc.a(fwrite.o)
 .bss           0x0000000000075fd0        0x0 /Users/davidebucci/Desktop/Synchronized/Vintage/Computing/Atari/ST/brown/lib/gcc/m68k-atariextrabrowner-elf/10.2.0/../../../../m68k-atariextrabrowner-elf/lib/m68000/libc.a(sprintf.o)
 .bss           0x0000000000075fd0        0x0 /Users/davidebucci/Desktop/Synchronized/Vintage/Computing/Atari/ST/brown/lib/gcc/m68k-atariextrabrowner-elf/10.2.0/../../../../m68k-atariextrabrowner-elf/lib/m68000/libc.a(ungetc.o)
 .bss           0x0000000000075fd0        0x0 /Users/davidebucci/Desktop/Synchronized/Vintage/Computing/Atari/ST/brown/lib/gcc/m68k-atariextrabrowner-elf/10.2.0/../../../../m68k-atariextrabrowner-elf/lib/m68000/libc.a(vfprintf.o)
 .bss           0x0000000000075fd0        0x0 /Users/davidebucci/Desktop/Synchronized/Vintage/Computing/Atari/ST/brown/lib/gcc/m68k-atariextrabrowner-elf/10.2.0/../../../../m68k-atariextrabrowner-elf/lib/m68000/libc.a(vsprintf.o)
 .bss           0x0000000000075fd0        0x0 /Users/davidebucci/Desktop/Synchronized/Vintage/Computing/Atari/ST/brown/lib/gcc/m68k-atariextrabrowner-elf/10.2.0/../../../../m68k-atariextrabrowner-elf/lib/m68000/libc.a(memchr.o)
 .bss           0x0000000000075fd0        0x0 /Users/davidebucci/Desktop/Synchronized/Vintage/Computing/Atari/ST/brown/lib/gcc/m68k-atariextrabrowner-elf/10.2.0/../../../../m68k-atariextrabrowner-elf/lib/m68000/libc.a(mempcpy.o)
 .bss           0x0000000000075fd0        0x0 /Users/davidebucci/Desktop/Synchronized/Vintage/Computing/Atari/ST/brown/lib/gcc/m68k-atariextrabrowner-elf/10.2.0/../../../../m68k-atariextrabrowner-elf/lib/m68000/libc.a(strcpy.o)
 .bss           0x0000000000075fd0        0x0 /Users/davidebucci/Desktop/Synchronized/Vintage/Computing/Atari/ST/brown/lib/gcc/m68k-atariextrabrowner-elf/10.2.0/../../../../m68k-atariextrabrowner-elf/lib/m68000/libc.a(strerror_r.o)
 .bss           0x0000000000075fd0        0x0 /Users/davidebucci/Desktop/Synchronized/Vintage/Computing/Atari/ST/brown/lib/gcc/m68k-atariextrabrowner-elf/10.2.0/../../../../m68k-atariextrabrowner-elf/lib/m68000/libc.a(strnlen.o)
 .bss           0x0000000000075fd0        0x0 /Users/davidebucci/Desktop/Synchronized/Vintage/Computing/Atari/ST/brown/lib/gcc/m68k-atariextrabrowner-elf/10.2.0/../../../../m68k-atariextrabrowner-elf/lib/m68000/libc.a(_itoa.o)
 .bss           0x0000000000075fd0        0x0 /Users/davidebucci/Desktop/Synchronized/Vintage/Computing/Atari/ST/brown/lib/gcc/m68k-atariextrabrowner-elf/10.2.0/../../../../m68k-atariextrabrowner-elf/lib/m68000/libc.a(lockfile.o)
 .bss           0x0000000000075fd0        0x0 /Users/davidebucci/Desktop/Synchronized/Vintage/Computing/Atari/ST/brown/lib/gcc/m68k-atariextrabrowner-elf/10.2.0/../../../../m68k-atariextrabrowner-elf/lib/m68000/libc.a(printf_fp.o)
 .bss           0x0000000000075fd0        0x0 /Users/davidebucci/Desktop/Synchronized/Vintage/Computing/Atari/ST/brown/lib/gcc/m68k-atariextrabrowner-elf/10.2.0/../../../../m68k-atariextrabrowner-elf/lib/m68000/libc.a(printf_fphex.o)
 .bss           0x0000000000075fd0      0x804 /Users/davidebucci/Desktop/Synchronized/Vintage/Computing/Atari/ST/brown/lib/gcc/m68k-atariextrabrowner-elf/10.2.0/../../../../m68k-atariextrabrowner-elf/lib/m68000/libc.a(reg-printf.o)
                0x0000000000075fd0                ___printf_function_table
                0x0000000000075fd4                ___printf_arginfo_table
 .bss           0x00000000000767d4        0x0 /Users/davidebucci/Desktop/Synchronized/Vintage/Computing/Atari/ST/brown/lib/gcc/m68k-atariextrabrowner-elf/10.2.0/../../../../m68k-atariextrabrowner-elf/lib/m68000/libc.a(fpioconst.o)
 .bss           0x00000000000767d4        0x4 /Users/davidebucci/Desktop/Synchronized/Vintage/Computing/Atari/ST/brown/lib/gcc/m68k-atariextrabrowner-elf/10.2.0/../../../../m68k-atariextrabrowner-elf/lib/m68000/libc.a(strerror.o)
 .bss           0x00000000000767d8        0x0 /Users/davidebucci/Desktop/Synchronized/Vintage/Computing/Atari/ST/brown/lib/gcc/m68k-atariextrabrowner-elf/10.2.0/../../../../m68k-atariextrabrowner-elf/lib/m68000/libc.a(dbl2mpn.o)
 .bss           0x00000000000767d8        0x0 /Users/davidebucci/Desktop/Synchronized/Vintage/Computing/Atari/ST/brown/lib/gcc/m68k-atariextrabrowner-elf/10.2.0/../../../../m68k-atariextrabrowner-elf/lib/m68000/libc.a(ldbl2mpn.o)
 .bss           0x00000000000767d8        0x0 /Users/davidebucci/Desktop/Synchronized/Vintage/Computing/Atari/ST/brown/lib/gcc/m68k-atariextrabrowner-elf/10.2.0/../../../../m68k-atariextrabrowner-elf/lib/m68000/libc.a(mp_clz_tab.o)
 .bss           0x00000000000767d8        0x0 /Users/davidebucci/Desktop/Synchronized/Vintage/Computing/Atari/ST/brown/lib/gcc/m68k-atariextrabrowner-elf/10.2.0/../../../../m68k-atariextrabrowner-elf/lib/m68000/libc.a(mpn-cmp.o)
 .bss           0x00000000000767d8        0x0 /Users/davidebucci/Desktop/Synchronized/Vintage/Computing/Atari/ST/brown/lib/gcc/m68k-atariextrabrowner-elf/10.2.0/../../../../m68k-atariextrabrowner-elf/lib/m68000/libc.a(mpn-divrem.o)
 .bss           0x00000000000767d8        0x0 /Users/davidebucci/Desktop/Synchronized/Vintage/Computing/Atari/ST/brown/lib/gcc/m68k-atariextrabrowner-elf/10.2.0/../../../../m68k-atariextrabrowner-elf/lib/m68000/libc.a(mpn-lshift.o)
 .bss           0x00000000000767d8        0x0 /Users/davidebucci/Desktop/Synchronized/Vintage/Computing/Atari/ST/brown/lib/gcc/m68k-atariextrabrowner-elf/10.2.0/../../../../m68k-atariextrabrowner-elf/lib/m68000/libc.a(mpn-mul.o)
 .bss           0x00000000000767d8        0x0 /Users/davidebucci/Desktop/Synchronized/Vintage/Computing/Atari/ST/brown/lib/gcc/m68k-atariextrabrowner-elf/10.2.0/../../../../m68k-atariextrabrowner-elf/lib/m68000/libc.a(mpn-mul_1.o)
 .bss           0x00000000000767d8        0x0 /Users/davidebucci/Desktop/Synchronized/Vintage/Computing/Atari/ST/brown/lib/gcc/m68k-atariextrabrowner-elf/10.2.0/../../../../m68k-atariextrabrowner-elf/lib/m68000/libc.a(mpn-mul_n.o)
 .bss           0x00000000000767d8        0x0 /Users/davidebucci/Desktop/Synchronized/Vintage/Computing/Atari/ST/brown/lib/gcc/m68k-atariextrabrowner-elf/10.2.0/../../../../m68k-atariextrabrowner-elf/lib/m68000/libc.a(mpn-rshift.o)
 .bss           0x00000000000767d8        0x0 /Users/davidebucci/Desktop/Synchronized/Vintage/Computing/Atari/ST/brown/lib/gcc/m68k-atariextrabrowner-elf/10.2.0/../../../../m68k-atariextrabrowner-elf/lib/m68000/libc.a(mpn-sub_n.o)
 .bss           0x00000000000767d8        0x0 /Users/davidebucci/Desktop/Synchronized/Vintage/Computing/Atari/ST/brown/lib/gcc/m68k-atariextrabrowner-elf/10.2.0/../../../../m68k-atariextrabrowner-elf/lib/m68000/libc.a(mpn-submul_1.o)
 .bss           0x00000000000767d8        0x0 /Users/davidebucci/Desktop/Synchronized/Vintage/Computing/Atari/ST/brown/lib/gcc/m68k-atariextrabrowner-elf/10.2.0/../../../../m68k-atariextrabrowner-elf/lib/m68000/libc.a(s_isinf.o)
 .bss           0x00000000000767d8        0x0 /Users/davidebucci/Desktop/Synchronized/Vintage/Computing/Atari/ST/brown/lib/gcc/m68k-atariextrabrowner-elf/10.2.0/../../../../m68k-atariextrabrowner-elf/lib/m68000/libc.a(s_isinfl.o)
 .bss           0x00000000000767d8        0x0 /Users/davidebucci/Desktop/Synchronized/Vintage/Computing/Atari/ST/brown/lib/gcc/m68k-atariextrabrowner-elf/10.2.0/../../../../m68k-atariextrabrowner-elf/lib/m68000/libc.a(s_isnan.o)
 .bss           0x00000000000767d8        0x0 /Users/davidebucci/Desktop/Synchronized/Vintage/Computing/Atari/ST/brown/lib/gcc/m68k-atariextrabrowner-elf/10.2.0/../../../../m68k-atariextrabrowner-elf/lib/m68000/libc.a(s_isnanl.o)
 .bss           0x00000000000767d8        0x0 /Users/davidebucci/Desktop/Synchronized/Vintage/Computing/Atari/ST/brown/lib/gcc/m68k-atariextrabrowner-elf/10.2.0/../../../../m68k-atariextrabrowner-elf/lib/m68000/libc.a(s_signbit.o)
 .bss           0x00000000000767d8        0x0 /Users/davidebucci/Desktop/Synchronized/Vintage/Computing/Atari/ST/brown/lib/gcc/m68k-atariextrabrowner-elf/10.2.0/../../../../m68k-atariextrabrowner-elf/lib/m68000/libc.a(s_signbitl.o)
 .bss           0x00000000000767d8        0x0 /Users/davidebucci/Desktop/Synchronized/Vintage/Computing/Atari/ST/brown/lib/gcc/m68k-atariextrabrowner-elf/10.2.0/../../../../m68k-atariextrabrowner-elf/lib/m68000/libc.a(snprintf.o)
 .bss           0x00000000000767d8        0x0 /Users/davidebucci/Desktop/Synchronized/Vintage/Computing/Atari/ST/brown/lib/gcc/m68k-atariextrabrowner-elf/10.2.0/../../../../m68k-atariextrabrowner-elf/lib/m68000/libc.a(vsnprintf.o)
 .bss           0x00000000000767d8        0x0 /Users/davidebucci/Desktop/Synchronized/Vintage/Computing/Atari/ST/brown/lib/gcc/m68k-atariextrabrowner-elf/10.2.0/../../../../m68k-atariextrabrowner-elf/lib/m68000/libc.a(mpn-add_n.o)
 .bss           0x00000000000767d8        0x0 /Users/davidebucci/Desktop/Synchronized/Vintage/Computing/Atari/ST/brown/lib/gcc/m68k-atariextrabrowner-elf/10.2.0/../../../../m68k-atariextrabrowner-elf/lib/m68000/libc.a(mpn-addmul_1.o)
 .bss           0x00000000000767d8        0x0 /Users/davidebucci/Desktop/Synchronized/Vintage/Computing/Atari/ST/brown/lib/gcc/m68k-atariextrabrowner-elf/10.2.0/../../../../m68k-atariextrabrowner-elf/lib/m68000/libc.a(fputs.o)
 .bss           0x00000000000767d8        0x0 /Users/davidebucci/Desktop/Synchronized/Vintage/Computing/Atari/ST/brown//lib/gcc/m68k-atariextrabrowner-elf/10.2.0/m68000/libgcc.a(_mulsi3.o)
 .bss           0x00000000000767d8        0x0 /Users/davidebucci/Desktop/Synchronized/Vintage/Computing/Atari/ST/brown//lib/gcc/m68k-atariextrabrowner-elf/10.2.0/m68000/libgcc.a(_udivsi3.o)
 .bss           0x00000000000767d8        0x0 /Users/davidebucci/Desktop/Synchronized/Vintage/Computing/Atari/ST/brown//lib/gcc/m68k-atariextrabrowner-elf/10.2.0/m68000/libgcc.a(_divsi3.o)
 .bss           0x00000000000767d8        0x0 /Users/davidebucci/Desktop/Synchronized/Vintage/Computing/Atari/ST/brown//lib/gcc/m68k-atariextrabrowner-elf/10.2.0/m68000/libgcc.a(_umodsi3.o)
 .bss           0x00000000000767d8        0x0 /Users/davidebucci/Desktop/Synchronized/Vintage/Computing/Atari/ST/brown//lib/gcc/m68k-atariextrabrowner-elf/10.2.0/m68000/libgcc.a(_modsi3.o)
 .bss           0x00000000000767d8        0x0 /Users/davidebucci/Desktop/Synchronized/Vintage/Computing/Atari/ST/brown//lib/gcc/m68k-atariextrabrowner-elf/10.2.0/m68000/libgcc.a(_double.o)
 .bss           0x00000000000767d8        0x0 /Users/davidebucci/Desktop/Synchronized/Vintage/Computing/Atari/ST/brown//lib/gcc/m68k-atariextrabrowner-elf/10.2.0/m68000/libgcc.a(_floatex.o)
 .bss           0x00000000000767d8        0x0 /Users/davidebucci/Desktop/Synchronized/Vintage/Computing/Atari/ST/brown//lib/gcc/m68k-atariextrabrowner-elf/10.2.0/m68000/libgcc.a(_ltdf2.o)
 .bss           0x00000000000767d8        0x0 /Users/davidebucci/Desktop/Synchronized/Vintage/Computing/Atari/ST/brown//lib/gcc/m68k-atariextrabrowner-elf/10.2.0/m68000/libgcc.a(fpgnulib.o)
 .bss           0x00000000000767d8        0x0 /Users/davidebucci/Desktop/Synchronized/Vintage/Computing/Atari/ST/brown//lib/gcc/m68k-atariextrabrowner-elf/10.2.0/m68000/libgcc.a(xfgnulib.o)
 .bss           0x00000000000767d8        0x0 /Users/davidebucci/Desktop/Synchronized/Vintage/Computing/Atari/ST/brown/lib/gcc/m68k-atariextrabrowner-elf/10.2.0/m68000/crtend.o
 *(COMMON)
                0x00000000000767d8                . = ALIGN ((. != 0x0)?0x4:0x1)
                0x00000000000767d8                . = ALIGN (0x4)
                0x00000000000767d8                . = SEGMENT_START ("ldata-segment", .)
                0x00000000000767d8                . = ALIGN (0x4)
                0x00000000000767d8                _end = .
                [!provide]                        PROVIDE (end = .)
                0x00000000000767d8                . = DATA_SEGMENT_END (.)

.stab
 *(.stab)

.stabstr
 *(.stabstr)

.stab.excl
 *(.stab.excl)

.stab.exclstr
 *(.stab.exclstr)

.stab.index
 *(.stab.index)

.stab.indexstr
 *(.stab.indexstr)

.comment        0x0000000000000000       0x12
 *(.comment)
 .comment       0x0000000000000000       0x12 /Users/davidebucci/Desktop/Synchronized/Vintage/Computing/Atari/ST/brown/lib/gcc/m68k-atariextrabrowner-elf/10.2.0/m68000/crtbegin.o
                                         0x13 (size before relaxing)
 .comment       0x0000000000000012       0x13 /var/folders/sk/pxzc9l1n12xfhw7mpgdgdkdc0000gn/T//tqf40.elf.kOuEog.ltrans0.ltrans.o
 .comment       0x0000000000000012       0x13 /Users/davidebucci/Desktop/Synchronized/Vintage/Computing/Atari/ST/brown/lib/gcc/m68k-atariextrabrowner-elf/10.2.0/../../../../m68k-atariextrabrowner-elf/lib/m68000/libc.a(crtinit.o)
 .comment       0x0000000000000012       0x13 /Users/davidebucci/Desktop/Synchronized/Vintage/Computing/Atari/ST/brown/lib/gcc/m68k-atariextrabrowner-elf/10.2.0/../../../../m68k-atariextrabrowner-elf/lib/m68000/libc.a(getenv.o)
 .comment       0x0000000000000012       0x13 /Users/davidebucci/Desktop/Synchronized/Vintage/Computing/Atari/ST/brown/lib/gcc/m68k-atariextrabrowner-elf/10.2.0/../../../../m68k-atariextrabrowner-elf/lib/m68000/libc.a(globals.o)
 .comment       0x0000000000000012       0x13 /Users/davidebucci/Desktop/Synchronized/Vintage/Computing/Atari/ST/brown/lib/gcc/m68k-atariextrabrowner-elf/10.2.0/../../../../m68k-atariextrabrowner-elf/lib/m68000/libc.a(heapbase.o)
 .comment       0x0000000000000012       0x13 /Users/davidebucci/Desktop/Synchronized/Vintage/Computing/Atari/ST/brown/lib/gcc/m68k-atariextrabrowner-elf/10.2.0/../../../../m68k-atariextrabrowner-elf/lib/m68000/libc.a(ident.o)
 .comment       0x0000000000000012       0x13 /Users/davidebucci/Desktop/Synchronized/Vintage/Computing/Atari/ST/brown/lib/gcc/m68k-atariextrabrowner-elf/10.2.0/../../../../m68k-atariextrabrowner-elf/lib/m68000/libc.a(ident_dummy_gem.o)
 .comment       0x0000000000000012       0x13 /Users/davidebucci/Desktop/Synchronized/Vintage/Computing/Atari/ST/brown/lib/gcc/m68k-atariextrabrowner-elf/10.2.0/../../../../m68k-atariextrabrowner-elf/lib/m68000/libc.a(inistack.o)
 .comment       0x0000000000000012       0x13 /Users/davidebucci/Desktop/Synchronized/Vintage/Computing/Atari/ST/brown/lib/gcc/m68k-atariextrabrowner-elf/10.2.0/../../../../m68k-atariextrabrowner-elf/lib/m68000/libc.a(main.o)
 .comment       0x0000000000000012       0x13 /Users/davidebucci/Desktop/Synchronized/Vintage/Computing/Atari/ST/brown/lib/gcc/m68k-atariextrabrowner-elf/10.2.0/../../../../m68k-atariextrabrowner-elf/lib/m68000/libc.a(malloc.o)
 .comment       0x0000000000000012       0x13 /Users/davidebucci/Desktop/Synchronized/Vintage/Computing/Atari/ST/brown/lib/gcc/m68k-atariextrabrowner-elf/10.2.0/../../../../m68k-atariextrabrowner-elf/lib/m68000/libc.a(realloc.o)
 .comment       0x0000000000000012       0x13 /Users/davidebucci/Desktop/Synchronized/Vintage/Computing/Atari/ST/brown/lib/gcc/m68k-atariextrabrowner-elf/10.2.0/../../../../m68k-atariextrabrowner-elf/lib/m68000/libc.a(stksiz.o)
 .comment       0x0000000000000012       0x13 /Users/davidebucci/Desktop/Synchronized/Vintage/Computing/Atari/ST/brown/lib/gcc/m68k-atariextrabrowner-elf/10.2.0/../../../../m68k-atariextrabrowner-elf/lib/m68000/libc.a(unx2dos.o)
 .comment       0x0000000000000012       0x13 /Users/davidebucci/Desktop/Synchronized/Vintage/Computing/Atari/ST/brown/lib/gcc/m68k-atariextrabrowner-elf/10.2.0/../../../../m68k-atariextrabrowner-elf/lib/m68000/libc.a(initsig.o)
 .comment       0x0000000000000012       0x13 /Users/davidebucci/Desktop/Synchronized/Vintage/Computing/Atari/ST/brown/lib/gcc/m68k-atariextrabrowner-elf/10.2.0/../../../../m68k-atariextrabrowner-elf/lib/m68000/libc.a(binmode.o)
 .comment       0x0000000000000012       0x13 /Users/davidebucci/Desktop/Synchronized/Vintage/Computing/Atari/ST/brown/lib/gcc/m68k-atariextrabrowner-elf/10.2.0/../../../../m68k-atariextrabrowner-elf/lib/m68000/libc.a(defmode.o)
 .comment       0x0000000000000012       0x13 /Users/davidebucci/Desktop/Synchronized/Vintage/Computing/Atari/ST/brown/lib/gcc/m68k-atariextrabrowner-elf/10.2.0/../../../../m68k-atariextrabrowner-elf/lib/m68000/libc.a(fclose.o)
 .comment       0x0000000000000012       0x13 /Users/davidebucci/Desktop/Synchronized/Vintage/Computing/Atari/ST/brown/lib/gcc/m68k-atariextrabrowner-elf/10.2.0/../../../../m68k-atariextrabrowner-elf/lib/m68000/libc.a(fgets.o)
 .comment       0x0000000000000012       0x13 /Users/davidebucci/Desktop/Synchronized/Vintage/Computing/Atari/ST/brown/lib/gcc/m68k-atariextrabrowner-elf/10.2.0/../../../../m68k-atariextrabrowner-elf/lib/m68000/libc.a(fileno.o)
 .comment       0x0000000000000012       0x13 /Users/davidebucci/Desktop/Synchronized/Vintage/Computing/Atari/ST/brown/lib/gcc/m68k-atariextrabrowner-elf/10.2.0/../../../../m68k-atariextrabrowner-elf/lib/m68000/libc.a(fopen.o)
 .comment       0x0000000000000012       0x13 /Users/davidebucci/Desktop/Synchronized/Vintage/Computing/Atari/ST/brown/lib/gcc/m68k-atariextrabrowner-elf/10.2.0/../../../../m68k-atariextrabrowner-elf/lib/m68000/libc.a(getchar.o)
 .comment       0x0000000000000012       0x13 /Users/davidebucci/Desktop/Synchronized/Vintage/Computing/Atari/ST/brown/lib/gcc/m68k-atariextrabrowner-elf/10.2.0/../../../../m68k-atariextrabrowner-elf/lib/m68000/libc.a(internals.o)
 .comment       0x0000000000000012       0x13 /Users/davidebucci/Desktop/Synchronized/Vintage/Computing/Atari/ST/brown/lib/gcc/m68k-atariextrabrowner-elf/10.2.0/../../../../m68k-atariextrabrowner-elf/lib/m68000/libc.a(newstream.o)
 .comment       0x0000000000000012       0x13 /Users/davidebucci/Desktop/Synchronized/Vintage/Computing/Atari/ST/brown/lib/gcc/m68k-atariextrabrowner-elf/10.2.0/../../../../m68k-atariextrabrowner-elf/lib/m68000/libc.a(setvbuf.o)
 .comment       0x0000000000000012       0x13 /Users/davidebucci/Desktop/Synchronized/Vintage/Computing/Atari/ST/brown/lib/gcc/m68k-atariextrabrowner-elf/10.2.0/../../../../m68k-atariextrabrowner-elf/lib/m68000/libc.a(stdio_init.o)
 .comment       0x0000000000000012       0x13 /Users/davidebucci/Desktop/Synchronized/Vintage/Computing/Atari/ST/brown/lib/gcc/m68k-atariextrabrowner-elf/10.2.0/../../../../m68k-atariextrabrowner-elf/lib/m68000/libc.a(sysd-stdio.o)
 .comment       0x0000000000000012       0x13 /Users/davidebucci/Desktop/Synchronized/Vintage/Computing/Atari/ST/brown/lib/gcc/m68k-atariextrabrowner-elf/10.2.0/../../../../m68k-atariextrabrowner-elf/lib/m68000/libc.a(atoi.o)
 .comment       0x0000000000000012       0x13 /Users/davidebucci/Desktop/Synchronized/Vintage/Computing/Atari/ST/brown/lib/gcc/m68k-atariextrabrowner-elf/10.2.0/../../../../m68k-atariextrabrowner-elf/lib/m68000/libc.a(exit.o)
 .comment       0x0000000000000012       0x13 /Users/davidebucci/Desktop/Synchronized/Vintage/Computing/Atari/ST/brown/lib/gcc/m68k-atariextrabrowner-elf/10.2.0/../../../../m68k-atariextrabrowner-elf/lib/m68000/libc.a(strtol.o)
 .comment       0x0000000000000012       0x13 /Users/davidebucci/Desktop/Synchronized/Vintage/Computing/Atari/ST/brown/lib/gcc/m68k-atariextrabrowner-elf/10.2.0/../../../../m68k-atariextrabrowner-elf/lib/m68000/libc.a(memccpy.o)
 .comment       0x0000000000000012       0x13 /Users/davidebucci/Desktop/Synchronized/Vintage/Computing/Atari/ST/brown/lib/gcc/m68k-atariextrabrowner-elf/10.2.0/../../../../m68k-atariextrabrowner-elf/lib/m68000/libc.a(strcmp.o)
 .comment       0x0000000000000012       0x13 /Users/davidebucci/Desktop/Synchronized/Vintage/Computing/Atari/ST/brown/lib/gcc/m68k-atariextrabrowner-elf/10.2.0/../../../../m68k-atariextrabrowner-elf/lib/m68000/libc.a(strlen.o)
 .comment       0x0000000000000012       0x13 /Users/davidebucci/Desktop/Synchronized/Vintage/Computing/Atari/ST/brown/lib/gcc/m68k-atariextrabrowner-elf/10.2.0/../../../../m68k-atariextrabrowner-elf/lib/m68000/libc.a(strncat.o)
 .comment       0x0000000000000012       0x13 /Users/davidebucci/Desktop/Synchronized/Vintage/Computing/Atari/ST/brown/lib/gcc/m68k-atariextrabrowner-elf/10.2.0/../../../../m68k-atariextrabrowner-elf/lib/m68000/libc.a(strncmp.o)
 .comment       0x0000000000000012       0x13 /Users/davidebucci/Desktop/Synchronized/Vintage/Computing/Atari/ST/brown/lib/gcc/m68k-atariextrabrowner-elf/10.2.0/../../../../m68k-atariextrabrowner-elf/lib/m68000/libc.a(strncpy.o)
 .comment       0x0000000000000012       0x13 /Users/davidebucci/Desktop/Synchronized/Vintage/Computing/Atari/ST/brown/lib/gcc/m68k-atariextrabrowner-elf/10.2.0/../../../../m68k-atariextrabrowner-elf/lib/m68000/libc.a(strrchr.o)
 .comment       0x0000000000000012       0x13 /Users/davidebucci/Desktop/Synchronized/Vintage/Computing/Atari/ST/brown/lib/gcc/m68k-atariextrabrowner-elf/10.2.0/../../../../m68k-atariextrabrowner-elf/lib/m68000/libc.a(close.o)
 .comment       0x0000000000000012       0x13 /Users/davidebucci/Desktop/Synchronized/Vintage/Computing/Atari/ST/brown/lib/gcc/m68k-atariextrabrowner-elf/10.2.0/../../../../m68k-atariextrabrowner-elf/lib/m68000/libc.a(dup2.o)
 .comment       0x0000000000000012       0x13 /Users/davidebucci/Desktop/Synchronized/Vintage/Computing/Atari/ST/brown/lib/gcc/m68k-atariextrabrowner-elf/10.2.0/../../../../m68k-atariextrabrowner-elf/lib/m68000/libc.a(fstat.o)
 .comment       0x0000000000000012       0x13 /Users/davidebucci/Desktop/Synchronized/Vintage/Computing/Atari/ST/brown/lib/gcc/m68k-atariextrabrowner-elf/10.2.0/../../../../m68k-atariextrabrowner-elf/lib/m68000/libc.a(getpagesize.o)
 .comment       0x0000000000000012       0x13 /Users/davidebucci/Desktop/Synchronized/Vintage/Computing/Atari/ST/brown/lib/gcc/m68k-atariextrabrowner-elf/10.2.0/../../../../m68k-atariextrabrowner-elf/lib/m68000/libc.a(lseek.o)
 .comment       0x0000000000000012       0x13 /Users/davidebucci/Desktop/Synchronized/Vintage/Computing/Atari/ST/brown/lib/gcc/m68k-atariextrabrowner-elf/10.2.0/../../../../m68k-atariextrabrowner-elf/lib/m68000/libc.a(open.o)
 .comment       0x0000000000000012       0x13 /Users/davidebucci/Desktop/Synchronized/Vintage/Computing/Atari/ST/brown/lib/gcc/m68k-atariextrabrowner-elf/10.2.0/../../../../m68k-atariextrabrowner-elf/lib/m68000/libc.a(read.o)
 .comment       0x0000000000000012       0x13 /Users/davidebucci/Desktop/Synchronized/Vintage/Computing/Atari/ST/brown/lib/gcc/m68k-atariextrabrowner-elf/10.2.0/../../../../m68k-atariextrabrowner-elf/lib/m68000/libc.a(sbrk.o)
 .comment       0x0000000000000012       0x13 /Users/davidebucci/Desktop/Synchronized/Vintage/Computing/Atari/ST/brown/lib/gcc/m68k-atariextrabrowner-elf/10.2.0/../../../../m68k-atariextrabrowner-elf/lib/m68000/libc.a(sysctl.o)
 .comment       0x0000000000000012       0x13 /Users/davidebucci/Desktop/Synchronized/Vintage/Computing/Atari/ST/brown/lib/gcc/m68k-atariextrabrowner-elf/10.2.0/../../../../m68k-atariextrabrowner-elf/lib/m68000/libc.a(write.o)
 .comment       0x0000000000000012       0x13 /Users/davidebucci/Desktop/Synchronized/Vintage/Computing/Atari/ST/brown/lib/gcc/m68k-atariextrabrowner-elf/10.2.0/../../../../m68k-atariextrabrowner-elf/lib/m68000/libc.a(ident_sock.o)
 .comment       0x0000000000000012       0x13 /Users/davidebucci/Desktop/Synchronized/Vintage/Computing/Atari/ST/brown/lib/gcc/m68k-atariextrabrowner-elf/10.2.0/../../../../m68k-atariextrabrowner-elf/lib/m68000/libc.a(assert.o)
 .comment       0x0000000000000012       0x13 /Users/davidebucci/Desktop/Synchronized/Vintage/Computing/Atari/ST/brown/lib/gcc/m68k-atariextrabrowner-elf/10.2.0/../../../../m68k-atariextrabrowner-elf/lib/m68000/libc.a(console.o)
 .comment       0x0000000000000012       0x13 /Users/davidebucci/Desktop/Synchronized/Vintage/Computing/Atari/ST/brown/lib/gcc/m68k-atariextrabrowner-elf/10.2.0/../../../../m68k-atariextrabrowner-elf/lib/m68000/libc.a(ctype.o)
 .comment       0x0000000000000012       0x13 /Users/davidebucci/Desktop/Synchronized/Vintage/Computing/Atari/ST/brown/lib/gcc/m68k-atariextrabrowner-elf/10.2.0/../../../../m68k-atariextrabrowner-elf/lib/m68000/libc.a(do_fstat.o)
 .comment       0x0000000000000012       0x13 /Users/davidebucci/Desktop/Synchronized/Vintage/Computing/Atari/ST/brown/lib/gcc/m68k-atariextrabrowner-elf/10.2.0/../../../../m68k-atariextrabrowner-elf/lib/m68000/libc.a(enoent.o)
 .comment       0x0000000000000012       0x13 /Users/davidebucci/Desktop/Synchronized/Vintage/Computing/Atari/ST/brown/lib/gcc/m68k-atariextrabrowner-elf/10.2.0/../../../../m68k-atariextrabrowner-elf/lib/m68000/libc.a(inode.o)
 .comment       0x0000000000000012       0x13 /Users/davidebucci/Desktop/Synchronized/Vintage/Computing/Atari/ST/brown/lib/gcc/m68k-atariextrabrowner-elf/10.2.0/../../../../m68k-atariextrabrowner-elf/lib/m68000/libc.a(isatty.o)
 .comment       0x0000000000000012       0x13 /Users/davidebucci/Desktop/Synchronized/Vintage/Computing/Atari/ST/brown/lib/gcc/m68k-atariextrabrowner-elf/10.2.0/../../../../m68k-atariextrabrowner-elf/lib/m68000/libc.a(isctty.o)
 .comment       0x0000000000000012       0x13 /Users/davidebucci/Desktop/Synchronized/Vintage/Computing/Atari/ST/brown/lib/gcc/m68k-atariextrabrowner-elf/10.2.0/../../../../m68k-atariextrabrowner-elf/lib/m68000/libc.a(quickstat.o)
 .comment       0x0000000000000012       0x13 /Users/davidebucci/Desktop/Synchronized/Vintage/Computing/Atari/ST/brown/lib/gcc/m68k-atariextrabrowner-elf/10.2.0/../../../../m68k-atariextrabrowner-elf/lib/m68000/libc.a(toxxx.o)
 .comment       0x0000000000000012       0x13 /Users/davidebucci/Desktop/Synchronized/Vintage/Computing/Atari/ST/brown/lib/gcc/m68k-atariextrabrowner-elf/10.2.0/../../../../m68k-atariextrabrowner-elf/lib/m68000/libc.a(unixtime.o)
 .comment       0x0000000000000012       0x13 /Users/davidebucci/Desktop/Synchronized/Vintage/Computing/Atari/ST/brown/lib/gcc/m68k-atariextrabrowner-elf/10.2.0/../../../../m68k-atariextrabrowner-elf/lib/m68000/libc.a(raise.o)
 .comment       0x0000000000000012       0x13 /Users/davidebucci/Desktop/Synchronized/Vintage/Computing/Atari/ST/brown/lib/gcc/m68k-atariextrabrowner-elf/10.2.0/../../../../m68k-atariextrabrowner-elf/lib/m68000/libc.a(fcloseall.o)
 .comment       0x0000000000000012       0x13 /Users/davidebucci/Desktop/Synchronized/Vintage/Computing/Atari/ST/brown/lib/gcc/m68k-atariextrabrowner-elf/10.2.0/../../../../m68k-atariextrabrowner-elf/lib/m68000/libc.a(fflush.o)
 .comment       0x0000000000000012       0x13 /Users/davidebucci/Desktop/Synchronized/Vintage/Computing/Atari/ST/brown/lib/gcc/m68k-atariextrabrowner-elf/10.2.0/../../../../m68k-atariextrabrowner-elf/lib/m68000/libc.a(itoa-digits.o)
 .comment       0x0000000000000012       0x13 /Users/davidebucci/Desktop/Synchronized/Vintage/Computing/Atari/ST/brown/lib/gcc/m68k-atariextrabrowner-elf/10.2.0/../../../../m68k-atariextrabrowner-elf/lib/m68000/libc.a(strtoul.o)
 .comment       0x0000000000000012       0x13 /Users/davidebucci/Desktop/Synchronized/Vintage/Computing/Atari/ST/brown/lib/gcc/m68k-atariextrabrowner-elf/10.2.0/../../../../m68k-atariextrabrowner-elf/lib/m68000/libc.a(strchr.o)
 .comment       0x0000000000000012       0x13 /Users/davidebucci/Desktop/Synchronized/Vintage/Computing/Atari/ST/brown/lib/gcc/m68k-atariextrabrowner-elf/10.2.0/../../../../m68k-atariextrabrowner-elf/lib/m68000/libc.a(localtime.o)
 .comment       0x0000000000000012       0x13 /Users/davidebucci/Desktop/Synchronized/Vintage/Computing/Atari/ST/brown/lib/gcc/m68k-atariextrabrowner-elf/10.2.0/../../../../m68k-atariextrabrowner-elf/lib/m68000/libc.a(access.o)
 .comment       0x0000000000000012       0x13 /Users/davidebucci/Desktop/Synchronized/Vintage/Computing/Atari/ST/brown/lib/gcc/m68k-atariextrabrowner-elf/10.2.0/../../../../m68k-atariextrabrowner-elf/lib/m68000/libc.a(chmod.o)
 .comment       0x0000000000000012       0x13 /Users/davidebucci/Desktop/Synchronized/Vintage/Computing/Atari/ST/brown/lib/gcc/m68k-atariextrabrowner-elf/10.2.0/../../../../m68k-atariextrabrowner-elf/lib/m68000/libc.a(getegid.o)
 .comment       0x0000000000000012       0x13 /Users/davidebucci/Desktop/Synchronized/Vintage/Computing/Atari/ST/brown/lib/gcc/m68k-atariextrabrowner-elf/10.2.0/../../../../m68k-atariextrabrowner-elf/lib/m68000/libc.a(geteuid.o)
 .comment       0x0000000000000012       0x13 /Users/davidebucci/Desktop/Synchronized/Vintage/Computing/Atari/ST/brown/lib/gcc/m68k-atariextrabrowner-elf/10.2.0/../../../../m68k-atariextrabrowner-elf/lib/m68000/libc.a(getgid.o)
 .comment       0x0000000000000012       0x13 /Users/davidebucci/Desktop/Synchronized/Vintage/Computing/Atari/ST/brown/lib/gcc/m68k-atariextrabrowner-elf/10.2.0/../../../../m68k-atariextrabrowner-elf/lib/m68000/libc.a(getgroups.o)
 .comment       0x0000000000000012       0x13 /Users/davidebucci/Desktop/Synchronized/Vintage/Computing/Atari/ST/brown/lib/gcc/m68k-atariextrabrowner-elf/10.2.0/../../../../m68k-atariextrabrowner-elf/lib/m68000/libc.a(getpid.o)
 .comment       0x0000000000000012       0x13 /Users/davidebucci/Desktop/Synchronized/Vintage/Computing/Atari/ST/brown/lib/gcc/m68k-atariextrabrowner-elf/10.2.0/../../../../m68k-atariextrabrowner-elf/lib/m68000/libc.a(getuid.o)
 .comment       0x0000000000000012       0x13 /Users/davidebucci/Desktop/Synchronized/Vintage/Computing/Atari/ST/brown/lib/gcc/m68k-atariextrabrowner-elf/10.2.0/../../../../m68k-atariextrabrowner-elf/lib/m68000/libc.a(ioctl.o)
 .comment       0x0000000000000012       0x13 /Users/davidebucci/Desktop/Synchronized/Vintage/Computing/Atari/ST/brown/lib/gcc/m68k-atariextrabrowner-elf/10.2.0/../../../../m68k-atariextrabrowner-elf/lib/m68000/libc.a(kill.o)
 .comment       0x0000000000000012       0x13 /Users/davidebucci/Desktop/Synchronized/Vintage/Computing/Atari/ST/brown/lib/gcc/m68k-atariextrabrowner-elf/10.2.0/../../../../m68k-atariextrabrowner-elf/lib/m68000/libc.a(time.o)
 .comment       0x0000000000000012       0x13 /Users/davidebucci/Desktop/Synchronized/Vintage/Computing/Atari/ST/brown/lib/gcc/m68k-atariextrabrowner-elf/10.2.0/../../../../m68k-atariextrabrowner-elf/lib/m68000/libc.a(abort.o)
 .comment       0x0000000000000012       0x13 /Users/davidebucci/Desktop/Synchronized/Vintage/Computing/Atari/ST/brown/lib/gcc/m68k-atariextrabrowner-elf/10.2.0/../../../../m68k-atariextrabrowner-elf/lib/m68000/libc.a(alglobal.o)
 .comment       0x0000000000000012       0x13 /Users/davidebucci/Desktop/Synchronized/Vintage/Computing/Atari/ST/brown/lib/gcc/m68k-atariextrabrowner-elf/10.2.0/../../../../m68k-atariextrabrowner-elf/lib/m68000/libc.a(calloc.o)
 .comment       0x0000000000000012       0x13 /Users/davidebucci/Desktop/Synchronized/Vintage/Computing/Atari/ST/brown/lib/gcc/m68k-atariextrabrowner-elf/10.2.0/../../../../m68k-atariextrabrowner-elf/lib/m68000/libc.a(do_stat.o)
 .comment       0x0000000000000012       0x13 /Users/davidebucci/Desktop/Synchronized/Vintage/Computing/Atari/ST/brown/lib/gcc/m68k-atariextrabrowner-elf/10.2.0/../../../../m68k-atariextrabrowner-elf/lib/m68000/libc.a(uidgid.o)
 .comment       0x0000000000000012       0x13 /Users/davidebucci/Desktop/Synchronized/Vintage/Computing/Atari/ST/brown/lib/gcc/m68k-atariextrabrowner-elf/10.2.0/../../../../m68k-atariextrabrowner-elf/lib/m68000/libc.a(getpwuid.o)
 .comment       0x0000000000000012       0x13 /Users/davidebucci/Desktop/Synchronized/Vintage/Computing/Atari/ST/brown/lib/gcc/m68k-atariextrabrowner-elf/10.2.0/../../../../m68k-atariextrabrowner-elf/lib/m68000/libc.a(getpwuid_r.o)
 .comment       0x0000000000000012       0x13 /Users/davidebucci/Desktop/Synchronized/Vintage/Computing/Atari/ST/brown/lib/gcc/m68k-atariextrabrowner-elf/10.2.0/../../../../m68k-atariextrabrowner-elf/lib/m68000/libc.a(grp.o)
 .comment       0x0000000000000012       0x13 /Users/davidebucci/Desktop/Synchronized/Vintage/Computing/Atari/ST/brown/lib/gcc/m68k-atariextrabrowner-elf/10.2.0/../../../../m68k-atariextrabrowner-elf/lib/m68000/libc.a(rewind.o)
 .comment       0x0000000000000012       0x13 /Users/davidebucci/Desktop/Synchronized/Vintage/Computing/Atari/ST/brown/lib/gcc/m68k-atariextrabrowner-elf/10.2.0/../../../../m68k-atariextrabrowner-elf/lib/m68000/libc.a(asctime.o)
 .comment       0x0000000000000012       0x13 /Users/davidebucci/Desktop/Synchronized/Vintage/Computing/Atari/ST/brown/lib/gcc/m68k-atariextrabrowner-elf/10.2.0/../../../../m68k-atariextrabrowner-elf/lib/m68000/libc.a(strftime.o)
 .comment       0x0000000000000012       0x13 /Users/davidebucci/Desktop/Synchronized/Vintage/Computing/Atari/ST/brown/lib/gcc/m68k-atariextrabrowner-elf/10.2.0/../../../../m68k-atariextrabrowner-elf/lib/m68000/libc.a(gettimeofday.o)
 .comment       0x0000000000000012       0x13 /Users/davidebucci/Desktop/Synchronized/Vintage/Computing/Atari/ST/brown/lib/gcc/m68k-atariextrabrowner-elf/10.2.0/../../../../m68k-atariextrabrowner-elf/lib/m68000/libc.a(setlocale.o)
 .comment       0x0000000000000012       0x13 /Users/davidebucci/Desktop/Synchronized/Vintage/Computing/Atari/ST/brown/lib/gcc/m68k-atariextrabrowner-elf/10.2.0/../../../../m68k-atariextrabrowner-elf/lib/m68000/libc.a(fgetpwent_r.o)
 .comment       0x0000000000000012       0x13 /Users/davidebucci/Desktop/Synchronized/Vintage/Computing/Atari/ST/brown/lib/gcc/m68k-atariextrabrowner-elf/10.2.0/../../../../m68k-atariextrabrowner-elf/lib/m68000/libc.a(clearerr.o)
 .comment       0x0000000000000012       0x13 /Users/davidebucci/Desktop/Synchronized/Vintage/Computing/Atari/ST/brown/lib/gcc/m68k-atariextrabrowner-elf/10.2.0/../../../../m68k-atariextrabrowner-elf/lib/m68000/libc.a(fprintf.o)
 .comment       0x0000000000000012       0x13 /Users/davidebucci/Desktop/Synchronized/Vintage/Computing/Atari/ST/brown/lib/gcc/m68k-atariextrabrowner-elf/10.2.0/../../../../m68k-atariextrabrowner-elf/lib/m68000/libc.a(fputc.o)
 .comment       0x0000000000000012       0x13 /Users/davidebucci/Desktop/Synchronized/Vintage/Computing/Atari/ST/brown/lib/gcc/m68k-atariextrabrowner-elf/10.2.0/../../../../m68k-atariextrabrowner-elf/lib/m68000/libc.a(fseek.o)
 .comment       0x0000000000000012       0x13 /Users/davidebucci/Desktop/Synchronized/Vintage/Computing/Atari/ST/brown/lib/gcc/m68k-atariextrabrowner-elf/10.2.0/../../../../m68k-atariextrabrowner-elf/lib/m68000/libc.a(fwrite.o)
 .comment       0x0000000000000012       0x13 /Users/davidebucci/Desktop/Synchronized/Vintage/Computing/Atari/ST/brown/lib/gcc/m68k-atariextrabrowner-elf/10.2.0/../../../../m68k-atariextrabrowner-elf/lib/m68000/libc.a(sprintf.o)
 .comment       0x0000000000000012       0x13 /Users/davidebucci/Desktop/Synchronized/Vintage/Computing/Atari/ST/brown/lib/gcc/m68k-atariextrabrowner-elf/10.2.0/../../../../m68k-atariextrabrowner-elf/lib/m68000/libc.a(ungetc.o)
 .comment       0x0000000000000012       0x13 /Users/davidebucci/Desktop/Synchronized/Vintage/Computing/Atari/ST/brown/lib/gcc/m68k-atariextrabrowner-elf/10.2.0/../../../../m68k-atariextrabrowner-elf/lib/m68000/libc.a(vfprintf.o)
 .comment       0x0000000000000012       0x13 /Users/davidebucci/Desktop/Synchronized/Vintage/Computing/Atari/ST/brown/lib/gcc/m68k-atariextrabrowner-elf/10.2.0/../../../../m68k-atariextrabrowner-elf/lib/m68000/libc.a(vsprintf.o)
 .comment       0x0000000000000012       0x13 /Users/davidebucci/Desktop/Synchronized/Vintage/Computing/Atari/ST/brown/lib/gcc/m68k-atariextrabrowner-elf/10.2.0/../../../../m68k-atariextrabrowner-elf/lib/m68000/libc.a(memchr.o)
 .comment       0x0000000000000012       0x13 /Users/davidebucci/Desktop/Synchronized/Vintage/Computing/Atari/ST/brown/lib/gcc/m68k-atariextrabrowner-elf/10.2.0/../../../../m68k-atariextrabrowner-elf/lib/m68000/libc.a(mempcpy.o)
 .comment       0x0000000000000012       0x13 /Users/davidebucci/Desktop/Synchronized/Vintage/Computing/Atari/ST/brown/lib/gcc/m68k-atariextrabrowner-elf/10.2.0/../../../../m68k-atariextrabrowner-elf/lib/m68000/libc.a(strcpy.o)
 .comment       0x0000000000000012       0x13 /Users/davidebucci/Desktop/Synchronized/Vintage/Computing/Atari/ST/brown/lib/gcc/m68k-atariextrabrowner-elf/10.2.0/../../../../m68k-atariextrabrowner-elf/lib/m68000/libc.a(strerror_r.o)
 .comment       0x0000000000000012       0x13 /Users/davidebucci/Desktop/Synchronized/Vintage/Computing/Atari/ST/brown/lib/gcc/m68k-atariextrabrowner-elf/10.2.0/../../../../m68k-atariextrabrowner-elf/lib/m68000/libc.a(strnlen.o)
 .comment       0x0000000000000012       0x13 /Users/davidebucci/Desktop/Synchronized/Vintage/Computing/Atari/ST/brown/lib/gcc/m68k-atariextrabrowner-elf/10.2.0/../../../../m68k-atariextrabrowner-elf/lib/m68000/libc.a(_itoa.o)
 .comment       0x0000000000000012       0x13 /Users/davidebucci/Desktop/Synchronized/Vintage/Computing/Atari/ST/brown/lib/gcc/m68k-atariextrabrowner-elf/10.2.0/../../../../m68k-atariextrabrowner-elf/lib/m68000/libc.a(lockfile.o)
 .comment       0x0000000000000012       0x13 /Users/davidebucci/Desktop/Synchronized/Vintage/Computing/Atari/ST/brown/lib/gcc/m68k-atariextrabrowner-elf/10.2.0/../../../../m68k-atariextrabrowner-elf/lib/m68000/libc.a(printf_fp.o)
 .comment       0x0000000000000012       0x13 /Users/davidebucci/Desktop/Synchronized/Vintage/Computing/Atari/ST/brown/lib/gcc/m68k-atariextrabrowner-elf/10.2.0/../../../../m68k-atariextrabrowner-elf/lib/m68000/libc.a(printf_fphex.o)
 .comment       0x0000000000000012       0x13 /Users/davidebucci/Desktop/Synchronized/Vintage/Computing/Atari/ST/brown/lib/gcc/m68k-atariextrabrowner-elf/10.2.0/../../../../m68k-atariextrabrowner-elf/lib/m68000/libc.a(reg-printf.o)
 .comment       0x0000000000000012       0x13 /Users/davidebucci/Desktop/Synchronized/Vintage/Computing/Atari/ST/brown/lib/gcc/m68k-atariextrabrowner-elf/10.2.0/../../../../m68k-atariextrabrowner-elf/lib/m68000/libc.a(fpioconst.o)
 .comment       0x0000000000000012       0x13 /Users/davidebucci/Desktop/Synchronized/Vintage/Computing/Atari/ST/brown/lib/gcc/m68k-atariextrabrowner-elf/10.2.0/../../../../m68k-atariextrabrowner-elf/lib/m68000/libc.a(strerror.o)
 .comment       0x0000000000000012       0x13 /Users/davidebucci/Desktop/Synchronized/Vintage/Computing/Atari/ST/brown/lib/gcc/m68k-atariextrabrowner-elf/10.2.0/../../../../m68k-atariextrabrowner-elf/lib/m68000/libc.a(dbl2mpn.o)
 .comment       0x0000000000000012       0x13 /Users/davidebucci/Desktop/Synchronized/Vintage/Computing/Atari/ST/brown/lib/gcc/m68k-atariextrabrowner-elf/10.2.0/../../../../m68k-atariextrabrowner-elf/lib/m68000/libc.a(ldbl2mpn.o)
 .comment       0x0000000000000012       0x13 /Users/davidebucci/Desktop/Synchronized/Vintage/Computing/Atari/ST/brown/lib/gcc/m68k-atariextrabrowner-elf/10.2.0/../../../../m68k-atariextrabrowner-elf/lib/m68000/libc.a(mp_clz_tab.o)
 .comment       0x0000000000000012       0x13 /Users/davidebucci/Desktop/Synchronized/Vintage/Computing/Atari/ST/brown/lib/gcc/m68k-atariextrabrowner-elf/10.2.0/../../../../m68k-atariextrabrowner-elf/lib/m68000/libc.a(mpn-cmp.o)
 .comment       0x0000000000000012       0x13 /Users/davidebucci/Desktop/Synchronized/Vintage/Computing/Atari/ST/brown/lib/gcc/m68k-atariextrabrowner-elf/10.2.0/../../../../m68k-atariextrabrowner-elf/lib/m68000/libc.a(mpn-divrem.o)
 .comment       0x0000000000000012       0x13 /Users/davidebucci/Desktop/Synchronized/Vintage/Computing/Atari/ST/brown/lib/gcc/m68k-atariextrabrowner-elf/10.2.0/../../../../m68k-atariextrabrowner-elf/lib/m68000/libc.a(mpn-lshift.o)
 .comment       0x0000000000000012       0x13 /Users/davidebucci/Desktop/Synchronized/Vintage/Computing/Atari/ST/brown/lib/gcc/m68k-atariextrabrowner-elf/10.2.0/../../../../m68k-atariextrabrowner-elf/lib/m68000/libc.a(mpn-mul.o)
 .comment       0x0000000000000012       0x13 /Users/davidebucci/Desktop/Synchronized/Vintage/Computing/Atari/ST/brown/lib/gcc/m68k-atariextrabrowner-elf/10.2.0/../../../../m68k-atariextrabrowner-elf/lib/m68000/libc.a(mpn-mul_1.o)
 .comment       0x0000000000000012       0x13 /Users/davidebucci/Desktop/Synchronized/Vintage/Computing/Atari/ST/brown/lib/gcc/m68k-atariextrabrowner-elf/10.2.0/../../../../m68k-atariextrabrowner-elf/lib/m68000/libc.a(mpn-mul_n.o)
 .comment       0x0000000000000012       0x13 /Users/davidebucci/Desktop/Synchronized/Vintage/Computing/Atari/ST/brown/lib/gcc/m68k-atariextrabrowner-elf/10.2.0/../../../../m68k-atariextrabrowner-elf/lib/m68000/libc.a(mpn-rshift.o)
 .comment       0x0000000000000012       0x13 /Users/davidebucci/Desktop/Synchronized/Vintage/Computing/Atari/ST/brown/lib/gcc/m68k-atariextrabrowner-elf/10.2.0/../../../../m68k-atariextrabrowner-elf/lib/m68000/libc.a(mpn-sub_n.o)
 .comment       0x0000000000000012       0x13 /Users/davidebucci/Desktop/Synchronized/Vintage/Computing/Atari/ST/brown/lib/gcc/m68k-atariextrabrowner-elf/10.2.0/../../../../m68k-atariextrabrowner-elf/lib/m68000/libc.a(mpn-submul_1.o)
 .comment       0x0000000000000012       0x13 /Users/davidebucci/Desktop/Synchronized/Vintage/Computing/Atari/ST/brown/lib/gcc/m68k-atariextrabrowner-elf/10.2.0/../../../../m68k-atariextrabrowner-elf/lib/m68000/libc.a(s_isinf.o)
 .comment       0x0000000000000012       0x13 /Users/davidebucci/Desktop/Synchronized/Vintage/Computing/Atari/ST/brown/lib/gcc/m68k-atariextrabrowner-elf/10.2.0/../../../../m68k-atariextrabrowner-elf/lib/m68000/libc.a(s_isinfl.o)
 .comment       0x0000000000000012       0x13 /Users/davidebucci/Desktop/Synchronized/Vintage/Computing/Atari/ST/brown/lib/gcc/m68k-atariextrabrowner-elf/10.2.0/../../../../m68k-atariextrabrowner-elf/lib/m68000/libc.a(s_isnan.o)
 .comment       0x0000000000000012       0x13 /Users/davidebucci/Desktop/Synchronized/Vintage/Computing/Atari/ST/brown/lib/gcc/m68k-atariextrabrowner-elf/10.2.0/../../../../m68k-atariextrabrowner-elf/lib/m68000/libc.a(s_isnanl.o)
 .comment       0x0000000000000012       0x13 /Users/davidebucci/Desktop/Synchronized/Vintage/Computing/Atari/ST/brown/lib/gcc/m68k-atariextrabrowner-elf/10.2.0/../../../../m68k-atariextrabrowner-elf/lib/m68000/libc.a(s_signbit.o)
 .comment       0x0000000000000012       0x13 /Users/davidebucci/Desktop/Synchronized/Vintage/Computing/Atari/ST/brown/lib/gcc/m68k-atariextrabrowner-elf/10.2.0/../../../../m68k-atariextrabrowner-elf/lib/m68000/libc.a(s_signbitl.o)
 .comment       0x0000000000000012       0x13 /Users/davidebucci/Desktop/Synchronized/Vintage/Computing/Atari/ST/brown/lib/gcc/m68k-atariextrabrowner-elf/10.2.0/../../../../m68k-atariextrabrowner-elf/lib/m68000/libc.a(snprintf.o)
 .comment       0x0000000000000012       0x13 /Users/davidebucci/Desktop/Synchronized/Vintage/Computing/Atari/ST/brown/lib/gcc/m68k-atariextrabrowner-elf/10.2.0/../../../../m68k-atariextrabrowner-elf/lib/m68000/libc.a(vsnprintf.o)
 .comment       0x0000000000000012       0x13 /Users/davidebucci/Desktop/Synchronized/Vintage/Computing/Atari/ST/brown/lib/gcc/m68k-atariextrabrowner-elf/10.2.0/../../../../m68k-atariextrabrowner-elf/lib/m68000/libc.a(mpn-add_n.o)
 .comment       0x0000000000000012       0x13 /Users/davidebucci/Desktop/Synchronized/Vintage/Computing/Atari/ST/brown/lib/gcc/m68k-atariextrabrowner-elf/10.2.0/../../../../m68k-atariextrabrowner-elf/lib/m68000/libc.a(mpn-addmul_1.o)
 .comment       0x0000000000000012       0x13 /Users/davidebucci/Desktop/Synchronized/Vintage/Computing/Atari/ST/brown/lib/gcc/m68k-atariextrabrowner-elf/10.2.0/../../../../m68k-atariextrabrowner-elf/lib/m68000/libc.a(fputs.o)
 .comment       0x0000000000000012       0x13 /Users/davidebucci/Desktop/Synchronized/Vintage/Computing/Atari/ST/brown//lib/gcc/m68k-atariextrabrowner-elf/10.2.0/m68000/libgcc.a(fpgnulib.o)
 .comment       0x0000000000000012       0x13 /Users/davidebucci/Desktop/Synchronized/Vintage/Computing/Atari/ST/brown//lib/gcc/m68k-atariextrabrowner-elf/10.2.0/m68000/libgcc.a(xfgnulib.o)
 .comment       0x0000000000000012       0x13 /Users/davidebucci/Desktop/Synchronized/Vintage/Computing/Atari/ST/brown/lib/gcc/m68k-atariextrabrowner-elf/10.2.0/m68000/crtend.o

.gnu.build.attributes
 *(.gnu.build.attributes .gnu.build.attributes.*)

.debug
 *(.debug)

.line
 *(.line)

.debug_srcinfo
 *(.debug_srcinfo)

.debug_sfnames
 *(.debug_sfnames)

.debug_aranges
 *(.debug_aranges)

.debug_pubnames
 *(.debug_pubnames)

.debug_info
 *(.debug_info .gnu.linkonce.wi.*)

.debug_abbrev
 *(.debug_abbrev)

.debug_line
 *(.debug_line .debug_line.* .debug_line_end)

.debug_frame
 *(.debug_frame)

.debug_str
 *(.debug_str)

.debug_loc
 *(.debug_loc)

.debug_macinfo
 *(.debug_macinfo)

.debug_weaknames
 *(.debug_weaknames)

.debug_funcnames
 *(.debug_funcnames)

.debug_typenames
 *(.debug_typenames)

.debug_varnames
 *(.debug_varnames)

.debug_pubtypes
 *(.debug_pubtypes)

.debug_ranges
 *(.debug_ranges)

.debug_macro
 *(.debug_macro)

.debug_addr
 *(.debug_addr)

.gnu.attributes
 *(.gnu.attributes)

/DISCARD/
 *(.note.GNU-stack)
 *(.gnu_debuglink)
 *(.gnu.lto_*)
OUTPUT(tqf40.elf elf32-m68k)
